
target/loongarch64-unknown-linux-gnu/release/loongrCore:     file format elf64-loongarch


Disassembly of section .text:

9000000001034808 <_start>:
9000000001034808:	0320018c 	lu52i.d     	$t0, $t0, -2048(0x800)
900000000103480c:	0406002c 	csrwr       	$t0, 0x180
9000000001034810:	0380440c 	ori         	$t0, $zero, 0x11
9000000001034814:	0324018c 	lu52i.d     	$t0, $t0, -1792(0x900)
9000000001034818:	0406042c 	csrwr       	$t0, 0x181
900000000103481c:	1c00008c 	pcaddu12i   	$t0, 4(0x4)
9000000001034820:	28f4d18c 	ld.d        	$t0, $t0, -716(0xd34)
9000000001034824:	1c00008d 	pcaddu12i   	$t1, 4(0x4)
9000000001034828:	28f4f1ad 	ld.d        	$t1, $t1, -708(0xd3c)
900000000103482c:	6c00118d 	bgeu        	$t0, $t1, 16(0x10)	# 900000000103483c <_start+0x34>
9000000001034830:	29c00180 	st.d        	$zero, $t0, 0
9000000001034834:	02c0218c 	addi.d      	$t0, $t0, 8(0x8)
9000000001034838:	6bfff98d 	bltu        	$t0, $t1, -8(0x3fff8)	# 9000000001034830 <_start+0x28>
900000000103483c:	1c000083 	pcaddu12i   	$sp, 4(0x4)
9000000001034840:	28f57063 	ld.d        	$sp, $sp, -676(0xd5c)
9000000001034844:	54000400 	bl          	4(0x4)	# 9000000001034848 <main>

9000000001034848 <main>:
9000000001034848:	02fc0063 	addi.d      	$sp, $sp, -256(0xf00)
900000000103484c:	29c3e061 	st.d        	$ra, $sp, 248(0xf8)
9000000001034850:	29c3c076 	st.d        	$fp, $sp, 240(0xf0)
9000000001034854:	29c3a07f 	st.d        	$s8, $sp, 232(0xe8)
9000000001034858:	29c3807e 	st.d        	$s7, $sp, 224(0xe0)
900000000103485c:	29c3607d 	st.d        	$s6, $sp, 216(0xd8)
9000000001034860:	29c3407c 	st.d        	$s5, $sp, 208(0xd0)
9000000001034864:	29c3207b 	st.d        	$s4, $sp, 200(0xc8)
9000000001034868:	29c3007a 	st.d        	$s3, $sp, 192(0xc0)
900000000103486c:	29c2e079 	st.d        	$s2, $sp, 184(0xb8)
9000000001034870:	29c2c078 	st.d        	$s1, $sp, 176(0xb0)
9000000001034874:	29c2a077 	st.d        	$s0, $sp, 168(0xa8)
9000000001034878:	1c000099 	pcaddu12i   	$s2, 4(0x4)
900000000103487c:	28f32339 	ld.d        	$s2, $s2, -824(0xcc8)
9000000001034880:	1c000065 	pcaddu12i   	$a1, 3(0x3)
9000000001034884:	02de00a5 	addi.d      	$a1, $a1, 1920(0x780)
9000000001034888:	0380041a 	ori         	$s3, $zero, 0x1
900000000103488c:	02c1e064 	addi.d      	$a0, $sp, 120(0x78)
9000000001034890:	0380081b 	ori         	$s4, $zero, 0x2
9000000001034894:	03800018 	ori         	$s1, $zero, 0x0
9000000001034898:	02c0a07f 	addi.d      	$s8, $sp, 40(0x28)
900000000103489c:	02c1a07c 	addi.d      	$s5, $sp, 104(0x68)
90000000010348a0:	29c1807a 	st.d        	$s3, $sp, 96(0x60)
90000000010348a4:	29c1607f 	st.d        	$s8, $sp, 88(0x58)
90000000010348a8:	29c12078 	st.d        	$s1, $sp, 72(0x48)
90000000010348ac:	29c1007b 	st.d        	$s4, $sp, 64(0x40)
90000000010348b0:	29c0c079 	st.d        	$s2, $sp, 48(0x30)
90000000010348b4:	29c2807a 	st.d        	$s3, $sp, 160(0xa0)
90000000010348b8:	29c2607c 	st.d        	$s5, $sp, 152(0x98)
90000000010348bc:	29c22078 	st.d        	$s1, $sp, 136(0x88)
90000000010348c0:	29c04065 	st.d        	$a1, $sp, 16(0x10)
90000000010348c4:	29c0e065 	st.d        	$a1, $sp, 56(0x38)
90000000010348c8:	29c0a064 	st.d        	$a0, $sp, 40(0x28)
90000000010348cc:	29c2007a 	st.d        	$s3, $sp, 128(0x80)
90000000010348d0:	1c000064 	pcaddu12i   	$a0, 3(0x3)
90000000010348d4:	02dd4084 	addi.d      	$a0, $a0, 1872(0x750)
90000000010348d8:	29c1e064 	st.d        	$a0, $sp, 120(0x78)
90000000010348dc:	1c000024 	pcaddu12i   	$a0, 1(0x1)
90000000010348e0:	02e1b084 	addi.d      	$a0, $a0, -1940(0x86c)
90000000010348e4:	29c1c064 	st.d        	$a0, $sp, 112(0x70)
90000000010348e8:	1c000064 	pcaddu12i   	$a0, 3(0x3)
90000000010348ec:	02dd2084 	addi.d      	$a0, $a0, 1864(0x748)
90000000010348f0:	29c1a064 	st.d        	$a0, $sp, 104(0x68)
90000000010348f4:	02c0e064 	addi.d      	$a0, $sp, 56(0x38)
90000000010348f8:	54056800 	bl          	1384(0x568)	# 9000000001034e60 <_ZN10loongrCore5print6_print17h49723550139a2898E>
90000000010348fc:	02c1e077 	addi.d      	$s0, $sp, 120(0x78)
9000000001034900:	1c00005d 	pcaddu12i   	$s6, 2(0x2)
9000000001034904:	02f423bd 	addi.d      	$s6, $s6, -760(0xd08)
9000000001034908:	29c20078 	st.d        	$s1, $sp, 128(0x80)
900000000103490c:	001502e4 	move        	$a0, $s0
9000000001034910:	29c1e07d 	st.d        	$s6, $sp, 120(0x78)
9000000001034914:	29c22078 	st.d        	$s1, $sp, 136(0x88)
9000000001034918:	29c28078 	st.d        	$s1, $sp, 160(0xa0)
900000000103491c:	29c2607d 	st.d        	$s6, $sp, 152(0x98)
9000000001034920:	54054000 	bl          	1344(0x540)	# 9000000001034e60 <_ZN10loongrCore5print6_print17h49723550139a2898E>
9000000001034924:	54083400 	bl          	2100(0x834)	# 9000000001035158 <_ZN10loongrCore4test17color_output_test17h56dfdc98ce23630bE>
9000000001034928:	1c00007e 	pcaddu12i   	$s7, 3(0x3)
900000000103492c:	02dc63de 	addi.d      	$s7, $s7, 1816(0x718)
9000000001034930:	1c000066 	pcaddu12i   	$a2, 3(0x3)
9000000001034934:	02dcc0c6 	addi.d      	$a2, $a2, 1840(0x730)
9000000001034938:	02c0e064 	addi.d      	$a0, $sp, 56(0x38)
900000000103493c:	29c0607b 	st.d        	$s4, $sp, 24(0x18)
9000000001034940:	29c02066 	st.d        	$a2, $sp, 8(0x8)
9000000001034944:	00150364 	move        	$a0, $s4
9000000001034948:	00150085 	move        	$a1, $a0

900000000103494c:	29c1807a 	st.d        	$s3, $sp, 96(0x60)
9000000001034950:	29c1607c 	st.d        	$s5, $sp, 88(0x58)
9000000001034954:	29c12078 	st.d        	$s1, $sp, 72(0x48)
9000000001034958:	29c1007b 	st.d        	$s4, $sp, 64(0x40)
900000000103495c:	29c1c079 	st.d        	$s2, $sp, 112(0x70)
9000000001034960:	29c28078 	st.d        	$s1, $sp, 160(0xa0)
9000000001034964:	29c2607d 	st.d        	$s6, $sp, 152(0x98)
9000000001034968:	29c22078 	st.d        	$s1, $sp, 136(0x88)
900000000103496c:	29c2007a 	st.d        	$s3, $sp, 128(0x80)
9000000001034970:	29c08065 	st.d        	$a1, $sp, 32(0x20)
9000000001034974:	29c0e07e 	st.d        	$s7, $sp, 56(0x38)
9000000001034978:	29c1a077 	st.d        	$s0, $sp, 104(0x68)
900000000103497c:	29c1e066 	st.d        	$a2, $sp, 120(0x78)
9000000001034980:	5404e000 	bl          	1248(0x4e0)	# 9000000001034e60 <_ZN10loongrCore5print6_print17h49723550139a2898E>
9000000001034984:	02c1e077 	addi.d      	$s0, $sp, 120(0x78)
9000000001034988:	29c20078 	st.d        	$s1, $sp, 128(0x80)
900000000103498c:	29c1e07d 	st.d        	$s6, $sp, 120(0x78)
9000000001034990:	29c22078 	st.d        	$s1, $sp, 136(0x88)
9000000001034994:	29c28078 	st.d        	$s1, $sp, 160(0xa0)
9000000001034998:	29c2607d 	st.d        	$s6, $sp, 152(0x98)
900000000103499c:	001502e4 	move        	$a0, $s0
90000000010349a0:	5404c000 	bl          	1216(0x4c0)	# 9000000001034e60 <_ZN10loongrCore5print6_print17h49723550139a2898E>
90000000010349a4:	02c0e064 	addi.d      	$a0, $sp, 56(0x38)
90000000010349a8:	1c000096 	pcaddu12i   	$fp, 4(0x4)
90000000010349ac:	28ee42d6 	ld.d        	$fp, $fp, -1136(0xb90)
90000000010349b0:	1c000066 	pcaddu12i   	$a2, 3(0x3)
90000000010349b4:	02db00c6 	addi.d      	$a2, $a2, 1728(0x6c0)
90000000010349b8:	02c06065 	addi.d      	$a1, $sp, 24(0x18)
90000000010349bc:	29c1807a 	st.d        	$s3, $sp, 96(0x60)
90000000010349c0:	29c1607f 	st.d        	$s8, $sp, 88(0x58)
90000000010349c4:	29c12078 	st.d        	$s1, $sp, 72(0x48)
90000000010349c8:	29c1007b 	st.d        	$s4, $sp, 64(0x40)
90000000010349cc:	29c0c079 	st.d        	$s2, $sp, 48(0x30)
90000000010349d0:	29c2807a 	st.d        	$s3, $sp, 160(0xa0)
90000000010349d4:	29c2607c 	st.d        	$s5, $sp, 152(0x98)
90000000010349d8:	29c22078 	st.d        	$s1, $sp, 136(0x88)
90000000010349dc:	29c2007a 	st.d        	$s3, $sp, 128(0x80)
90000000010349e0:	29c0e07e 	st.d        	$s7, $sp, 56(0x38)
90000000010349e4:	29c0a077 	st.d        	$s0, $sp, 40(0x28)
90000000010349e8:	29c1c076 	st.d        	$fp, $sp, 112(0x70)
90000000010349ec:	29c1e066 	st.d        	$a2, $sp, 120(0x78)
90000000010349f0:	29c1a065 	st.d        	$a1, $sp, 104(0x68)
90000000010349f4:	54046c00 	bl          	1132(0x46c)	# 9000000001034e60 <_ZN10loongrCore5print6_print17h49723550139a2898E>
90000000010349f8:	02c1e077 	addi.d      	$s0, $sp, 120(0x78)
90000000010349fc:	29c20078 	st.d        	$s1, $sp, 128(0x80)
9000000001034a00:	29c1e07d 	st.d        	$s6, $sp, 120(0x78)
9000000001034a04:	29c22078 	st.d        	$s1, $sp, 136(0x88)
9000000001034a08:	29c28078 	st.d        	$s1, $sp, 160(0xa0)
9000000001034a0c:	29c2607d 	st.d        	$s6, $sp, 152(0x98)
9000000001034a10:	001502e4 	move        	$a0, $s0
9000000001034a14:	54044c00 	bl          	1100(0x44c)	# 9000000001034e60 <_ZN10loongrCore5print6_print17h49723550139a2898E>
9000000001034a18:	1c000066 	pcaddu12i   	$a2, 3(0x3)
9000000001034a1c:	02d9a0c6 	addi.d      	$a2, $a2, 1640(0x668)
9000000001034a20:	28c04067 	ld.d        	$a3, $sp, 16(0x10)
9000000001034a24:	02c0e064 	addi.d      	$a0, $sp, 56(0x38)
9000000001034a28:	02c08065 	addi.d      	$a1, $sp, 32(0x20)
9000000001034a2c:	29c1807a 	st.d        	$s3, $sp, 96(0x60)
9000000001034a30:	29c1607f 	st.d        	$s8, $sp, 88(0x58)
9000000001034a34:	29c12078 	st.d        	$s1, $sp, 72(0x48)
9000000001034a38:	29c1007b 	st.d        	$s4, $sp, 64(0x40)
9000000001034a3c:	29c0c079 	st.d        	$s2, $sp, 48(0x30)
9000000001034a40:	29c2807a 	st.d        	$s3, $sp, 160(0xa0)
9000000001034a44:	29c2607c 	st.d        	$s5, $sp, 152(0x98)
9000000001034a48:	29c22078 	st.d        	$s1, $sp, 136(0x88)
9000000001034a4c:	29c2007a 	st.d        	$s3, $sp, 128(0x80)
9000000001034a50:	29c1c076 	st.d        	$fp, $sp, 112(0x70)
9000000001034a54:	29c0a077 	st.d        	$s0, $sp, 40(0x28)
9000000001034a58:	29c1e066 	st.d        	$a2, $sp, 120(0x78)
9000000001034a5c:	29c1a065 	st.d        	$a1, $sp, 104(0x68)
9000000001034a60:	29c0e067 	st.d        	$a3, $sp, 56(0x38)
9000000001034a64:	5403fc00 	bl          	1020(0x3fc)	# 9000000001034e60 <_ZN10loongrCore5print6_print17h49723550139a2898E>
9000000001034a68:	02c1e077 	addi.d      	$s0, $sp, 120(0x78)
9000000001034a6c:	29c20078 	st.d        	$s1, $sp, 128(0x80)
9000000001034a70:	29c1e07d 	st.d        	$s6, $sp, 120(0x78)
9000000001034a74:	29c22078 	st.d        	$s1, $sp, 136(0x88)
9000000001034a78:	29c28078 	st.d        	$s1, $sp, 160(0xa0)
9000000001034a7c:	29c2607d 	st.d        	$s6, $sp, 152(0x98)
9000000001034a80:	001502e4 	move        	$a0, $s0
9000000001034a84:	5403dc00 	bl          	988(0x3dc)	# 9000000001034e60 <_ZN10loongrCore5print6_print17h49723550139a2898E>
9000000001034a88:	28c02065 	ld.d        	$a1, $sp, 8(0x8)
9000000001034a8c:	02c0e064 	addi.d      	$a0, $sp, 56(0x38)
9000000001034a90:	29c1807a 	st.d        	$s3, $sp, 96(0x60)
9000000001034a94:	29c1607c 	st.d        	$s5, $sp, 88(0x58)
9000000001034a98:	29c12078 	st.d        	$s1, $sp, 72(0x48)
9000000001034a9c:	29c1007b 	st.d        	$s4, $sp, 64(0x40)
9000000001034aa0:	29c1c079 	st.d        	$s2, $sp, 112(0x70)
9000000001034aa4:	29c28078 	st.d        	$s1, $sp, 160(0xa0)
9000000001034aa8:	29c2607d 	st.d        	$s6, $sp, 152(0x98)
9000000001034aac:	29c22078 	st.d        	$s1, $sp, 136(0x88)
9000000001034ab0:	29c2007a 	st.d        	$s3, $sp, 128(0x80)
9000000001034ab4:	29c0e07e 	st.d        	$s7, $sp, 56(0x38)
9000000001034ab8:	29c1a077 	st.d        	$s0, $sp, 104(0x68)
9000000001034abc:	29c1e065 	st.d        	$a1, $sp, 120(0x78)
9000000001034ac0:	5403a000 	bl          	928(0x3a0)	# 9000000001034e60 <_ZN10loongrCore5print6_print17h49723550139a2898E>
9000000001034ac4:	02c1e064 	addi.d      	$a0, $sp, 120(0x78)
9000000001034ac8:	29c20078 	st.d        	$s1, $sp, 128(0x80)
9000000001034acc:	29c1e07d 	st.d        	$s6, $sp, 120(0x78)
9000000001034ad0:	29c22078 	st.d        	$s1, $sp, 136(0x88)
9000000001034ad4:	29c28078 	st.d        	$s1, $sp, 160(0xa0)
9000000001034ad8:	29c2607d 	st.d        	$s6, $sp, 152(0x98)
9000000001034adc:	54038400 	bl          	900(0x384)	# 9000000001034e60 <_ZN10loongrCore5print6_print17h49723550139a2898E>
9000000001034ae0:	06488000 	idle        	0x0
9000000001034ae4:	53ffffff 	b           	-4(0xffffffc)	# 9000000001034ae0 <main+0x298>

9000000001034ae8 <rust_begin_unwind>:
9000000001034ae8:	02fc4063 	addi.d      	$sp, $sp, -240(0xf10)
9000000001034aec:	29c3a061 	st.d        	$ra, $sp, 232(0xe8)
9000000001034af0:	29c3807b 	st.d        	$s4, $sp, 224(0xe0)
9000000001034af4:	29c3607a 	st.d        	$s3, $sp, 216(0xd8)
9000000001034af8:	29c34079 	st.d        	$s2, $sp, 208(0xd0)
9000000001034afc:	29c32078 	st.d        	$s1, $sp, 200(0xc8)
9000000001034b00:	29c30077 	st.d        	$s0, $sp, 192(0xc0)
9000000001034b04:	0380001a 	ori         	$s3, $zero, 0x0
9000000001034b08:	00150098 	move        	$s1, $a0
9000000001034b0c:	0380041b 	ori         	$s4, $zero, 0x1
9000000001034b10:	02c24077 	addi.d      	$s0, $sp, 144(0x90)
9000000001034b14:	29c2e07a 	st.d        	$s3, $sp, 184(0xb8)
9000000001034b18:	1c000044 	pcaddu12i   	$a0, 2(0x2)
9000000001034b1c:	02f8a084 	addi.d      	$a0, $a0, -472(0xe28)
9000000001034b20:	29c2c064 	st.d        	$a0, $sp, 176(0xb0)
9000000001034b24:	29c2807a 	st.d        	$s3, $sp, 160(0xa0)
9000000001034b28:	29c2607b 	st.d        	$s4, $sp, 152(0x98)
9000000001034b2c:	1c000064 	pcaddu12i   	$a0, 3(0x3)
9000000001034b30:	02d59084 	addi.d      	$a0, $a0, 1380(0x564)
9000000001034b34:	29c24064 	st.d        	$a0, $sp, 144(0x90)
9000000001034b38:	001502e4 	move        	$a0, $s0
9000000001034b3c:	54032400 	bl          	804(0x324)	# 9000000001034e60 <_ZN10loongrCore5print6_print17h49723550139a2898E>
9000000001034b40:	00150304 	move        	$a0, $s1
9000000001034b44:	5419e400 	bl          	6628(0x19e4)	# 9000000001036528 <_ZN4core5panic10panic_info9PanicInfo8location17he81541ce8b957312E>
9000000001034b48:	4000cc80 	beqz        	$a0, 204(0xcc)	# 9000000001034c14 <rust_begin_unwind+0x12c>
9000000001034b4c:	00150099 	move        	$s2, $a0
9000000001034b50:	5419f000 	bl          	6640(0x19f0)	# 9000000001036540 <_ZN4core5panic8location8Location4line17h7c30dacfb24261a1E>
9000000001034b54:	29811064 	st.w        	$a0, $sp, 68(0x44)
9000000001034b58:	00150324 	move        	$a0, $s2
9000000001034b5c:	5419d400 	bl          	6612(0x19d4)	# 9000000001036530 <_ZN4core5panic8location8Location4file17hc2363c9a5818d547E>
9000000001034b60:	29c14065 	st.d        	$a1, $sp, 80(0x50)
9000000001034b64:	29c12064 	st.d        	$a0, $sp, 72(0x48)
9000000001034b68:	00150304 	move        	$a0, $s1
9000000001034b6c:	5419b400 	bl          	6580(0x19b4)	# 9000000001036520 <_ZN4core5panic10panic_info9PanicInfo7message17h81c008049ecbb73eE>
9000000001034b70:	40010c80 	beqz        	$a0, 268(0x10c)	# 9000000001034c7c <rust_begin_unwind+0x194>
9000000001034b74:	1c000086 	pcaddu12i   	$a2, 4(0x4)
9000000001034b78:	28e6d0c6 	ld.d        	$a2, $a2, -1612(0x9b4)
9000000001034b7c:	1c000008 	pcaddu12i   	$a4, 0
9000000001034b80:	02d73108 	addi.d      	$a4, $a4, 1484(0x5cc)
9000000001034b84:	1c00008b 	pcaddu12i   	$a7, 4(0x4)
9000000001034b88:	28e6f16b 	ld.d        	$a7, $a7, -1604(0x9bc)
9000000001034b8c:	1c00006c 	pcaddu12i   	$t0, 3(0x3)
9000000001034b90:	02d5118c 	addi.d      	$t0, $t0, 1348(0x544)
9000000001034b94:	1c00000e 	pcaddu12i   	$t2, 0
9000000001034b98:	02d6b1ce 	addi.d      	$t2, $t2, 1452(0x5ac)
9000000001034b9c:	29c16064 	st.d        	$a0, $sp, 88(0x58)
9000000001034ba0:	02c0c064 	addi.d      	$a0, $sp, 48(0x30)
9000000001034ba4:	03800c0d 	ori         	$t1, $zero, 0x3
9000000001034ba8:	29c0a07b 	st.d        	$s4, $sp, 40(0x28)
9000000001034bac:	02c11065 	addi.d      	$a1, $sp, 68(0x44)
9000000001034bb0:	02c12067 	addi.d      	$a3, $sp, 72(0x48)
9000000001034bb4:	02c16069 	addi.d      	$a5, $sp, 88(0x58)
9000000001034bb8:	02c1806a 	addi.d      	$a6, $sp, 96(0x60)
9000000001034bbc:	29c08064 	st.d        	$a0, $sp, 32(0x20)
9000000001034bc0:	03800804 	ori         	$a0, $zero, 0x2
9000000001034bc4:	29c2e06e 	st.d        	$t2, $sp, 184(0xb8)
9000000001034bc8:	29c2c069 	st.d        	$a5, $sp, 176(0xb0)
9000000001034bcc:	29c2a068 	st.d        	$a4, $sp, 168(0xa8)
9000000001034bd0:	29c28067 	st.d        	$a3, $sp, 160(0xa0)
9000000001034bd4:	29c26066 	st.d        	$a2, $sp, 152(0x98)
9000000001034bd8:	29c2206d 	st.d        	$t1, $sp, 136(0x88)
9000000001034bdc:	29c20077 	st.d        	$s0, $sp, 128(0x80)
9000000001034be0:	29c1c07a 	st.d        	$s3, $sp, 112(0x70)
9000000001034be4:	29c1a06d 	st.d        	$t1, $sp, 104(0x68)
9000000001034be8:	29c0e06b 	st.d        	$a7, $sp, 56(0x38)
9000000001034bec:	29c0407a 	st.d        	$s3, $sp, 16(0x10)
9000000001034bf0:	29c24065 	st.d        	$a1, $sp, 144(0x90)
9000000001034bf4:	29c1806c 	st.d        	$t0, $sp, 96(0x60)
9000000001034bf8:	29c0c06a 	st.d        	$a6, $sp, 48(0x30)
9000000001034bfc:	29c02064 	st.d        	$a0, $sp, 8(0x8)
9000000001034c00:	1c000064 	pcaddu12i   	$a0, 3(0x3)
9000000001034c04:	02d28084 	addi.d      	$a0, $a0, 1184(0x4a0)
9000000001034c08:	29c00064 	st.d        	$a0, $sp, 0
9000000001034c0c:	02c00064 	addi.d      	$a0, $sp, 0
9000000001034c10:	50006000 	b           	96(0x60)	# 9000000001034c70 <rust_begin_unwind+0x188>
9000000001034c14:	1c000084 	pcaddu12i   	$a0, 4(0x4)
9000000001034c18:	28e4b084 	ld.d        	$a0, $a0, -1748(0x92c)
9000000001034c1c:	1c000065 	pcaddu12i   	$a1, 3(0x3)
9000000001034c20:	02d210a5 	addi.d      	$a1, $a1, 1156(0x484)
9000000001034c24:	03800806 	ori         	$a2, $zero, 0x2
9000000001034c28:	02c00067 	addi.d      	$a3, $sp, 0
9000000001034c2c:	29c2207b 	st.d        	$s4, $sp, 136(0x88)
9000000001034c30:	29c2e07a 	st.d        	$s3, $sp, 184(0xb8)
9000000001034c34:	29c20067 	st.d        	$a3, $sp, 128(0x80)
9000000001034c38:	29c1c07a 	st.d        	$s3, $sp, 112(0x70)
9000000001034c3c:	29c1a066 	st.d        	$a2, $sp, 104(0x68)
9000000001034c40:	29c02064 	st.d        	$a0, $sp, 8(0x8)
9000000001034c44:	29c18065 	st.d        	$a1, $sp, 96(0x60)
9000000001034c48:	29c00077 	st.d        	$s0, $sp, 0
9000000001034c4c:	1c000044 	pcaddu12i   	$a0, 2(0x2)
9000000001034c50:	02f3d084 	addi.d      	$a0, $a0, -780(0xcf4)
9000000001034c54:	29c2c064 	st.d        	$a0, $sp, 176(0xb0)
9000000001034c58:	29c2807a 	st.d        	$s3, $sp, 160(0xa0)
9000000001034c5c:	29c2607b 	st.d        	$s4, $sp, 152(0x98)
9000000001034c60:	1c000064 	pcaddu12i   	$a0, 3(0x3)
9000000001034c64:	02d18084 	addi.d      	$a0, $a0, 1120(0x460)
9000000001034c68:	29c24064 	st.d        	$a0, $sp, 144(0x90)
9000000001034c6c:	02c18064 	addi.d      	$a0, $sp, 96(0x60)
9000000001034c70:	5401f000 	bl          	496(0x1f0)	# 9000000001034e60 <_ZN10loongrCore5print6_print17h49723550139a2898E>
9000000001034c74:	06488000 	idle        	0x0
9000000001034c78:	53ffffff 	b           	-4(0xffffffc)	# 9000000001034c74 <rust_begin_unwind+0x18c>
9000000001034c7c:	1c000044 	pcaddu12i   	$a0, 2(0x2)
9000000001034c80:	02f23084 	addi.d      	$a0, $a0, -884(0xc8c)
9000000001034c84:	0380ac05 	ori         	$a1, $zero, 0x2b
9000000001034c88:	1c000066 	pcaddu12i   	$a2, 3(0x3)
9000000001034c8c:	02d1e0c6 	addi.d      	$a2, $a2, 1144(0x478)
9000000001034c90:	54099800 	bl          	2456(0x998)	# 9000000001035628 <_ZN4core9panicking5panic17h2978341b5c47dc6dE>
9000000001034c94:	002a0000 	break       	0x0

9000000001034c98 <_ZN4core3ptr37drop_in_place$LT$core..fmt..Error$GT$17heb808369b3530e37E.llvm.12598796291985723362>:
9000000001034c98:	4c000020 	jirl        	$zero, $ra, 0
9000000001034c9c:	00000000 	0x00000000

9000000001034ca0 <_ZN50_$LT$$RF$mut$u20$W$u20$as$u20$core..fmt..Write$GT$10write_char17h53199bbcffae4a15E.llvm.12598796291985723362>:
9000000001034ca0:	02ffc063 	addi.d      	$sp, $sp, -16(0xff0)
9000000001034ca4:	28c00084 	ld.d        	$a0, $a0, 0
9000000001034ca8:	03800006 	ori         	$a2, $zero, 0x0
9000000001034cac:	004080a5 	slli.w      	$a1, $a1, 0x0
9000000001034cb0:	29803066 	st.w        	$a2, $sp, 12(0xc)
9000000001034cb4:	03820006 	ori         	$a2, $zero, 0x80
9000000001034cb8:	6c0014a6 	bgeu        	$a1, $a2, 20(0x14)	# 9000000001034ccc <_ZN50_$LT$$RF$mut$u20$W$u20$as$u20$core..fmt..Write$GT$10write_char17h53199bbcffae4a15E.llvm.12598796291985723362+0x2c>
9000000001034cbc:	29003065 	st.b        	$a1, $sp, 12(0xc)
9000000001034cc0:	03800406 	ori         	$a2, $zero, 0x1
9000000001034cc4:	4400b0c0 	bnez        	$a2, 176(0xb0)	# 9000000001034d74 <_ZN50_$LT$$RF$mut$u20$W$u20$as$u20$core..fmt..Write$GT$10write_char17h53199bbcffae4a15E.llvm.12598796291985723362+0xd4>
9000000001034cc8:	5000e000 	b           	224(0xe0)	# 9000000001034da8 <_ZN50_$LT$$RF$mut$u20$W$u20$as$u20$core..fmt..Write$GT$10write_char17h53199bbcffae4a15E.llvm.12598796291985723362+0x108>
9000000001034ccc:	03a00006 	ori         	$a2, $zero, 0x800
9000000001034cd0:	6c002ca6 	bgeu        	$a1, $a2, 44(0x2c)	# 9000000001034cfc <_ZN50_$LT$$RF$mut$u20$W$u20$as$u20$core..fmt..Write$GT$10write_char17h53199bbcffae4a15E.llvm.12598796291985723362+0x5c>
9000000001034cd4:	03800806 	ori         	$a2, $zero, 0x2
9000000001034cd8:	004498a7 	srli.w      	$a3, $a1, 0x6
9000000001034cdc:	007f18c5 	bstrins.w   	$a1, $a2, 0x1f, 0x6
9000000001034ce0:	03800806 	ori         	$a2, $zero, 0x2
9000000001034ce4:	29003465 	st.b        	$a1, $sp, 13(0xd)
9000000001034ce8:	02bf0005 	addi.w      	$a1, $zero, -64(0xfc0)
9000000001034cec:	001514e5 	or          	$a1, $a3, $a1
9000000001034cf0:	29003065 	st.b        	$a1, $sp, 12(0xc)
9000000001034cf4:	440080c0 	bnez        	$a2, 128(0x80)	# 9000000001034d74 <_ZN50_$LT$$RF$mut$u20$W$u20$as$u20$core..fmt..Write$GT$10write_char17h53199bbcffae4a15E.llvm.12598796291985723362+0xd4>
9000000001034cf8:	5000b000 	b           	176(0xb0)	# 9000000001034da8 <_ZN50_$LT$$RF$mut$u20$W$u20$as$u20$core..fmt..Write$GT$10write_char17h53199bbcffae4a15E.llvm.12598796291985723362+0x108>
9000000001034cfc:	14000206 	lu12i.w     	$a2, 16(0x10)
9000000001034d00:	6c0038a6 	bgeu        	$a1, $a2, 56(0x38)	# 9000000001034d38 <_ZN50_$LT$$RF$mut$u20$W$u20$as$u20$core..fmt..Write$GT$10write_char17h53199bbcffae4a15E.llvm.12598796291985723362+0x98>
9000000001034d04:	03800807 	ori         	$a3, $zero, 0x2
9000000001034d08:	004498a6 	srli.w      	$a2, $a1, 0x6
9000000001034d0c:	0044b0a8 	srli.w      	$a4, $a1, 0xc
9000000001034d10:	007f18e5 	bstrins.w   	$a1, $a3, 0x1f, 0x6
9000000001034d14:	007f18e6 	bstrins.w   	$a2, $a3, 0x1f, 0x6
9000000001034d18:	29003865 	st.b        	$a1, $sp, 14(0xe)
9000000001034d1c:	02bf8005 	addi.w      	$a1, $zero, -32(0xfe0)
9000000001034d20:	29003466 	st.b        	$a2, $sp, 13(0xd)
9000000001034d24:	03800c06 	ori         	$a2, $zero, 0x3
9000000001034d28:	00151505 	or          	$a1, $a4, $a1
9000000001034d2c:	29003065 	st.b        	$a1, $sp, 12(0xc)
9000000001034d30:	440044c0 	bnez        	$a2, 68(0x44)	# 9000000001034d74 <_ZN50_$LT$$RF$mut$u20$W$u20$as$u20$core..fmt..Write$GT$10write_char17h53199bbcffae4a15E.llvm.12598796291985723362+0xd4>
9000000001034d34:	50007400 	b           	116(0x74)	# 9000000001034da8 <_ZN50_$LT$$RF$mut$u20$W$u20$as$u20$core..fmt..Write$GT$10write_char17h53199bbcffae4a15E.llvm.12598796291985723362+0x108>
9000000001034d38:	03800807 	ori         	$a3, $zero, 0x2
9000000001034d3c:	0044b0a6 	srli.w      	$a2, $a1, 0xc
9000000001034d40:	004498a8 	srli.w      	$a4, $a1, 0x6
9000000001034d44:	0044c8a9 	srli.w      	$a5, $a1, 0x12
9000000001034d48:	007f18e5 	bstrins.w   	$a1, $a3, 0x1f, 0x6
9000000001034d4c:	007f18e6 	bstrins.w   	$a2, $a3, 0x1f, 0x6
9000000001034d50:	007f18e8 	bstrins.w   	$a4, $a3, 0x1f, 0x6
9000000001034d54:	29003c65 	st.b        	$a1, $sp, 15(0xf)
9000000001034d58:	02bfc005 	addi.w      	$a1, $zero, -16(0xff0)
9000000001034d5c:	29003868 	st.b        	$a4, $sp, 14(0xe)
9000000001034d60:	29003466 	st.b        	$a2, $sp, 13(0xd)
9000000001034d64:	03801006 	ori         	$a2, $zero, 0x4
9000000001034d68:	00151525 	or          	$a1, $a5, $a1
9000000001034d6c:	29003065 	st.b        	$a1, $sp, 12(0xc)
9000000001034d70:	400038c0 	beqz        	$a2, 56(0x38)	# 9000000001034da8 <_ZN50_$LT$$RF$mut$u20$W$u20$as$u20$core..fmt..Write$GT$10write_char17h53199bbcffae4a15E.llvm.12598796291985723362+0x108>
9000000001034d74:	28c00089 	ld.d        	$a5, $a0, 0
9000000001034d78:	02c03067 	addi.d      	$a3, $sp, 12(0xc)
9000000001034d7c:	001098e8 	add.d       	$a4, $a3, $a2
9000000001034d80:	29000125 	st.b        	$a1, $a5, 0
9000000001034d84:	038004e5 	ori         	$a1, $a3, 0x1
9000000001034d88:	580020a8 	beq         	$a1, $a4, 32(0x20)	# 9000000001034da8 <_ZN50_$LT$$RF$mut$u20$W$u20$as$u20$core..fmt..Write$GT$10write_char17h53199bbcffae4a15E.llvm.12598796291985723362+0x108>
9000000001034d8c:	02fffcc6 	addi.d      	$a2, $a2, -1(0xfff)
9000000001034d90:	2a0000a8 	ld.bu       	$a4, $a1, 0
9000000001034d94:	28c00087 	ld.d        	$a3, $a0, 0
9000000001034d98:	02fffcc6 	addi.d      	$a2, $a2, -1(0xfff)
9000000001034d9c:	02c004a5 	addi.d      	$a1, $a1, 1(0x1)
9000000001034da0:	290000e8 	st.b        	$a4, $a3, 0
9000000001034da4:	47ffecdf 	bnez        	$a2, -20(0x7fffec)	# 9000000001034d90 <_ZN50_$LT$$RF$mut$u20$W$u20$as$u20$core..fmt..Write$GT$10write_char17h53199bbcffae4a15E.llvm.12598796291985723362+0xf0>
9000000001034da8:	03800004 	ori         	$a0, $zero, 0x0
9000000001034dac:	02c04063 	addi.d      	$sp, $sp, 16(0x10)
9000000001034db0:	4c000020 	jirl        	$zero, $ra, 0
9000000001034db4:	00000000 	0x00000000

9000000001034db8 <_ZN50_$LT$$RF$mut$u20$W$u20$as$u20$core..fmt..Write$GT$9write_fmt17h44aef7236cf9356aE.llvm.12598796291985723362>:
9000000001034db8:	02ff0063 	addi.d      	$sp, $sp, -64(0xfc0)
9000000001034dbc:	29c0e061 	st.d        	$ra, $sp, 56(0x38)
9000000001034dc0:	28c00084 	ld.d        	$a0, $a0, 0
9000000001034dc4:	28c060a6 	ld.d        	$a2, $a1, 24(0x18)
9000000001034dc8:	28c080a7 	ld.d        	$a3, $a1, 32(0x20)
9000000001034dcc:	28c0a0a8 	ld.d        	$a4, $a1, 40(0x28)
9000000001034dd0:	28c000a9 	ld.d        	$a5, $a1, 0
9000000001034dd4:	29c00064 	st.d        	$a0, $sp, 0
9000000001034dd8:	28c040a4 	ld.d        	$a0, $a1, 16(0x10)
9000000001034ddc:	28c020a5 	ld.d        	$a1, $a1, 8(0x8)
9000000001034de0:	29c08066 	st.d        	$a2, $sp, 32(0x20)
9000000001034de4:	29c02069 	st.d        	$a5, $sp, 8(0x8)
9000000001034de8:	29c0c068 	st.d        	$a4, $sp, 48(0x30)
9000000001034dec:	29c0a067 	st.d        	$a3, $sp, 40(0x28)
9000000001034df0:	02c02066 	addi.d      	$a2, $sp, 8(0x8)
9000000001034df4:	29c06064 	st.d        	$a0, $sp, 24(0x18)
9000000001034df8:	29c04065 	st.d        	$a1, $sp, 16(0x10)
9000000001034dfc:	02c00064 	addi.d      	$a0, $sp, 0
9000000001034e00:	1c000065 	pcaddu12i   	$a1, 3(0x3)
9000000001034e04:	02cc60a5 	addi.d      	$a1, $a1, 792(0x318)
9000000001034e08:	54090800 	bl          	2312(0x908)	# 9000000001035710 <_ZN4core3fmt5write17h62bbab114cb7dd1fE>
9000000001034e0c:	28c0e061 	ld.d        	$ra, $sp, 56(0x38)
9000000001034e10:	02c10063 	addi.d      	$sp, $sp, 64(0x40)
9000000001034e14:	4c000020 	jirl        	$zero, $ra, 0

9000000001034e18 <_ZN50_$LT$$RF$mut$u20$W$u20$as$u20$core..fmt..Write$GT$9write_str17hed8ca194f88f3589E.llvm.12598796291985723362>:
9000000001034e18:	40003cc0 	beqz        	$a2, 60(0x3c)	# 9000000001034e54 <_ZN50_$LT$$RF$mut$u20$W$u20$as$u20$core..fmt..Write$GT$9write_str17hed8ca194f88f3589E.llvm.12598796291985723362+0x3c>
9000000001034e1c:	28c00084 	ld.d        	$a0, $a0, 0
9000000001034e20:	2a0000a8 	ld.bu       	$a4, $a1, 0
9000000001034e24:	28c00087 	ld.d        	$a3, $a0, 0
9000000001034e28:	290000e8 	st.b        	$a4, $a3, 0
9000000001034e2c:	03800407 	ori         	$a3, $zero, 0x1
9000000001034e30:	580024c7 	beq         	$a2, $a3, 36(0x24)	# 9000000001034e54 <_ZN50_$LT$$RF$mut$u20$W$u20$as$u20$core..fmt..Write$GT$9write_str17hed8ca194f88f3589E.llvm.12598796291985723362+0x3c>
9000000001034e34:	02fffcc6 	addi.d      	$a2, $a2, -1(0xfff)
9000000001034e38:	02c004a5 	addi.d      	$a1, $a1, 1(0x1)
9000000001034e3c:	2a0000a8 	ld.bu       	$a4, $a1, 0
9000000001034e40:	28c00087 	ld.d        	$a3, $a0, 0
9000000001034e44:	02fffcc6 	addi.d      	$a2, $a2, -1(0xfff)
9000000001034e48:	02c004a5 	addi.d      	$a1, $a1, 1(0x1)
9000000001034e4c:	290000e8 	st.b        	$a4, $a3, 0
9000000001034e50:	47ffecdf 	bnez        	$a2, -20(0x7fffec)	# 9000000001034e3c <_ZN50_$LT$$RF$mut$u20$W$u20$as$u20$core..fmt..Write$GT$9write_str17hed8ca194f88f3589E.llvm.12598796291985723362+0x24>
9000000001034e54:	03800004 	ori         	$a0, $zero, 0x0
9000000001034e58:	4c000020 	jirl        	$zero, $ra, 0
9000000001034e5c:	00000000 	0x00000000

9000000001034e60 <_ZN10loongrCore5print6_print17h49723550139a2898E>:
9000000001034e60:	02fec063 	addi.d      	$sp, $sp, -80(0xfb0)
9000000001034e64:	29c12061 	st.d        	$ra, $sp, 72(0x48)
9000000001034e68:	29c10078 	st.d        	$s1, $sp, 64(0x40)
9000000001034e6c:	29c0e077 	st.d        	$s0, $sp, 56(0x38)
9000000001034e70:	00150097 	move        	$s0, $a0
9000000001034e74:	1c000064 	pcaddu12i   	$a0, 3(0x3)
9000000001034e78:	02dcd084 	addi.d      	$a0, $a0, 1844(0x734)
9000000001034e7c:	28c00084 	ld.d        	$a0, $a0, 0
9000000001034e80:	38720000 	dbar        	0x0
9000000001034e84:	4400b880 	bnez        	$a0, 184(0xb8)	# 9000000001034f3c <_ZN10loongrCore5print6_print17h49723550139a2898E+0xdc>
9000000001034e88:	1c000067 	pcaddu12i   	$a3, 3(0x3)
9000000001034e8c:	02dc80e7 	addi.d      	$a3, $a3, 1824(0x720)
9000000001034e90:	03800405 	ori         	$a1, $zero, 0x1
9000000001034e94:	03800006 	ori         	$a2, $zero, 0x0
9000000001034e98:	38720000 	dbar        	0x0
9000000001034e9c:	220000e4 	ll.d        	$a0, $a3, 0
9000000001034ea0:	5c001086 	bne         	$a0, $a2, 16(0x10)	# 9000000001034eb0 <_ZN10loongrCore5print6_print17h49723550139a2898E+0x50>
9000000001034ea4:	001500a8 	move        	$a4, $a1
9000000001034ea8:	230000e8 	sc.d        	$a4, $a3, 0
9000000001034eac:	5bfff100 	beq         	$a4, $zero, -16(0x3fff0)	# 9000000001034e9c <_ZN10loongrCore5print6_print17h49723550139a2898E+0x3c>
9000000001034eb0:	38720000 	dbar        	0x0
9000000001034eb4:	44008880 	bnez        	$a0, 136(0x88)	# 9000000001034f3c <_ZN10loongrCore5print6_print17h49723550139a2898E+0xdc>
9000000001034eb8:	143fc004 	lu12i.w     	$a0, 130560(0x1fe00)
9000000001034ebc:	1c000067 	pcaddu12i   	$a3, 3(0x3)
9000000001034ec0:	02dbb0e7 	addi.d      	$a3, $a3, 1772(0x6ec)
9000000001034ec4:	03800c09 	ori         	$a5, $zero, 0x3
9000000001034ec8:	0380040a 	ori         	$a6, $zero, 0x1
9000000001034ecc:	0380000e 	ori         	$t2, $zero, 0x0
9000000001034ed0:	0380080f 	ori         	$t3, $zero, 0x2
9000000001034ed4:	03814010 	ori         	$t4, $zero, 0x50
9000000001034ed8:	0380080d 	ori         	$t1, $zero, 0x2
9000000001034edc:	03878c88 	ori         	$a4, $a0, 0x1e3
9000000001034ee0:	29c02067 	st.d        	$a3, $sp, 8(0x8)
9000000001034ee4:	0387808b 	ori         	$a7, $a0, 0x1e0
9000000001034ee8:	29000109 	st.b        	$a5, $a4, 0
9000000001034eec:	03878889 	ori         	$a5, $a0, 0x1e2
9000000001034ef0:	2900012a 	st.b        	$a6, $a5, 0
9000000001034ef4:	03878489 	ori         	$a5, $a0, 0x1e1
9000000001034ef8:	02c02064 	addi.d      	$a0, $sp, 8(0x8)
9000000001034efc:	2900012a 	st.b        	$a6, $a5, 0
9000000001034f00:	2a00010a 	ld.bu       	$a6, $a4, 0
9000000001034f04:	0382014c 	ori         	$t0, $a6, 0x80
9000000001034f08:	2900010c 	st.b        	$t0, $a4, 0
9000000001034f0c:	29000170 	st.b        	$t4, $a7, 0
9000000001034f10:	2900012f 	st.b        	$t3, $a5, 0
9000000001034f14:	2900010a 	st.b        	$a6, $a4, 0
9000000001034f18:	29c060eb 	st.d        	$a7, $a3, 24(0x18)
9000000001034f1c:	29c040e6 	st.d        	$a2, $a3, 16(0x10)
9000000001034f20:	29c020e5 	st.d        	$a1, $a3, 8(0x8)
9000000001034f24:	2900406e 	st.b        	$t2, $sp, 16(0x10)
9000000001034f28:	38720000 	dbar        	0x0
9000000001034f2c:	29c000ed 	st.d        	$t1, $a3, 0
9000000001034f30:	38720000 	dbar        	0x0
9000000001034f34:	5406cc00 	bl          	1740(0x6cc)	# 9000000001035600 <_ZN60_$LT$spin..once..Finish$u20$as$u20$core..ops..drop..Drop$GT$4drop17hf8fc67a636c75342E>
9000000001034f38:	50004400 	b           	68(0x44)	# 9000000001034f7c <_ZN10loongrCore5print6_print17h49723550139a2898E+0x11c>
9000000001034f3c:	00410884 	slli.d      	$a0, $a0, 0x2
9000000001034f40:	1c000045 	pcaddu12i   	$a1, 2(0x2)
9000000001034f44:	02e8f0a5 	addi.d      	$a1, $a1, -1476(0xa3c)
9000000001034f48:	38081484 	ldx.w       	$a0, $a0, $a1
9000000001034f4c:	00109484 	add.d       	$a0, $a0, $a1
9000000001034f50:	4c000080 	jirl        	$zero, $a0, 0
9000000001034f54:	1c000064 	pcaddu12i   	$a0, 3(0x3)
9000000001034f58:	02d95084 	addi.d      	$a0, $a0, 1620(0x654)
9000000001034f5c:	28c00084 	ld.d        	$a0, $a0, 0
9000000001034f60:	38720000 	dbar        	0x0
9000000001034f64:	1c000045 	pcaddu12i   	$a1, 2(0x2)
9000000001034f68:	02e860a5 	addi.d      	$a1, $a1, -1512(0xa18)
9000000001034f6c:	00410884 	slli.d      	$a0, $a0, 0x2
9000000001034f70:	38081484 	ldx.w       	$a0, $a0, $a1
9000000001034f74:	00109484 	add.d       	$a0, $a0, $a1
9000000001034f78:	4c000080 	jirl        	$zero, $a0, 0
9000000001034f7c:	1c000064 	pcaddu12i   	$a0, 3(0x3)
9000000001034f80:	02d8b084 	addi.d      	$a0, $a0, 1580(0x62c)
9000000001034f84:	03800407 	ori         	$a3, $zero, 0x1
9000000001034f88:	03800018 	ori         	$s1, $zero, 0x0
9000000001034f8c:	38720000 	dbar        	0x0
9000000001034f90:	02c04085 	addi.d      	$a1, $a0, 16(0x10)
9000000001034f94:	02fff004 	addi.d      	$a0, $zero, -4(0xffc)
9000000001034f98:	0343ff06 	andi        	$a2, $s1, 0xff
9000000001034f9c:	0343fce7 	andi        	$a3, $a3, 0xff
9000000001034fa0:	001490a8 	and         	$a4, $a1, $a0
9000000001034fa4:	03400ca5 	andi        	$a1, $a1, 0x3
9000000001034fa8:	00408ca9 	slli.w      	$a5, $a1, 0x3
9000000001034fac:	0383fc05 	ori         	$a1, $zero, 0xff
9000000001034fb0:	001724aa 	sll.w       	$a6, $a1, $a5
9000000001034fb4:	001724cc 	sll.w       	$t0, $a2, $a5
9000000001034fb8:	001724ed 	sll.w       	$t1, $a3, $a5
9000000001034fbc:	0014280b 	nor         	$a7, $zero, $a6
9000000001034fc0:	2000010f 	ll.w        	$t3, $a4, 0
9000000001034fc4:	0014a9f0 	and         	$t4, $t3, $a6
9000000001034fc8:	5c00160c 	bne         	$t4, $t0, 20(0x14)	# 9000000001034fdc <_ZN10loongrCore5print6_print17h49723550139a2898E+0x17c>
9000000001034fcc:	0014adef 	and         	$t3, $t3, $a7
9000000001034fd0:	001535ef 	or          	$t3, $t3, $t1
9000000001034fd4:	2100010f 	sc.w        	$t3, $a4, 0
9000000001034fd8:	5bffe9e0 	beq         	$t3, $zero, -24(0x3ffe8)	# 9000000001034fc0 <_ZN10loongrCore5print6_print17h49723550139a2898E+0x160>
9000000001034fdc:	38720000 	dbar        	0x0
9000000001034fe0:	0017a60e 	srl.w       	$t2, $t4, $a5
9000000001034fe4:	00005dce 	ext.w.b     	$t2, $t2
9000000001034fe8:	38720000 	dbar        	0x0
9000000001034fec:	400075c0 	beqz        	$t2, 116(0x74)	# 9000000001035060 <_ZN10loongrCore5print6_print17h49723550139a2898E+0x200>
9000000001034ff0:	1c000068 	pcaddu12i   	$a4, 3(0x3)
9000000001034ff4:	02d6e108 	addi.d      	$a4, $a4, 1464(0x5b8)
9000000001034ff8:	28004108 	ld.b        	$a4, $a4, 16(0x10)
9000000001034ffc:	0343fd08 	andi        	$a4, $a4, 0xff
9000000001035000:	47fff11f 	bnez        	$a4, -16(0x7ffff0)	# 9000000001034ff0 <_ZN10loongrCore5print6_print17h49723550139a2898E+0x190>
9000000001035004:	1c000068 	pcaddu12i   	$a4, 3(0x3)
9000000001035008:	02d69108 	addi.d      	$a4, $a4, 1444(0x5a4)
900000000103500c:	38720000 	dbar        	0x0
9000000001035010:	02c04108 	addi.d      	$a4, $a4, 16(0x10)
9000000001035014:	00149109 	and         	$a5, $a4, $a0
9000000001035018:	03400d08 	andi        	$a4, $a4, 0x3
900000000103501c:	00408d0a 	slli.w      	$a6, $a4, 0x3
9000000001035020:	001728ab 	sll.w       	$a7, $a1, $a6
9000000001035024:	001728cd 	sll.w       	$t1, $a2, $a6
9000000001035028:	001728ee 	sll.w       	$t2, $a3, $a6
900000000103502c:	00142c0c 	nor         	$t0, $zero, $a7
9000000001035030:	2000012f 	ll.w        	$t3, $a5, 0
9000000001035034:	0014adf0 	and         	$t4, $t3, $a7
9000000001035038:	5c00160d 	bne         	$t4, $t1, 20(0x14)	# 900000000103504c <_ZN10loongrCore5print6_print17h49723550139a2898E+0x1ec>
900000000103503c:	0014b1ef 	and         	$t3, $t3, $t0
9000000001035040:	001539ef 	or          	$t3, $t3, $t2
9000000001035044:	2100012f 	sc.w        	$t3, $a5, 0
9000000001035048:	5bffe9e0 	beq         	$t3, $zero, -24(0x3ffe8)	# 9000000001035030 <_ZN10loongrCore5print6_print17h49723550139a2898E+0x1d0>
900000000103504c:	38720000 	dbar        	0x0
9000000001035050:	0017aa08 	srl.w       	$a4, $t4, $a6
9000000001035054:	00005d08 	ext.w.b     	$a4, $a4
9000000001035058:	38720000 	dbar        	0x0
900000000103505c:	47ff951f 	bnez        	$a4, -108(0x7fff94)	# 9000000001034ff0 <_ZN10loongrCore5print6_print17h49723550139a2898E+0x190>
9000000001035060:	1c000064 	pcaddu12i   	$a0, 3(0x3)
9000000001035064:	02d52084 	addi.d      	$a0, $a0, 1352(0x548)
9000000001035068:	28c022e5 	ld.d        	$a1, $s0, 8(0x8)
900000000103506c:	28c082e6 	ld.d        	$a2, $s0, 32(0x20)
9000000001035070:	28c0a2e7 	ld.d        	$a3, $s0, 40(0x28)
9000000001035074:	02c06084 	addi.d      	$a0, $a0, 24(0x18)
9000000001035078:	29c00064 	st.d        	$a0, $sp, 0
900000000103507c:	28c002e4 	ld.d        	$a0, $s0, 0
9000000001035080:	29c04065 	st.d        	$a1, $sp, 16(0x10)
9000000001035084:	28c062e5 	ld.d        	$a1, $s0, 24(0x18)
9000000001035088:	29c0a066 	st.d        	$a2, $sp, 40(0x28)
900000000103508c:	29c0c067 	st.d        	$a3, $sp, 48(0x30)
9000000001035090:	02c02066 	addi.d      	$a2, $sp, 8(0x8)
9000000001035094:	29c02064 	st.d        	$a0, $sp, 8(0x8)
9000000001035098:	28c042e4 	ld.d        	$a0, $s0, 16(0x10)
900000000103509c:	29c08065 	st.d        	$a1, $sp, 32(0x20)
90000000010350a0:	29c06064 	st.d        	$a0, $sp, 24(0x18)
90000000010350a4:	02c00064 	addi.d      	$a0, $sp, 0
90000000010350a8:	1c000065 	pcaddu12i   	$a1, 3(0x3)
90000000010350ac:	02c1c0a5 	addi.d      	$a1, $a1, 112(0x70)
90000000010350b0:	54066000 	bl          	1632(0x660)	# 9000000001035710 <_ZN4core3fmt5write17h62bbab114cb7dd1fE>
90000000010350b4:	44006080 	bnez        	$a0, 96(0x60)	# 9000000001035114 <_ZN10loongrCore5print6_print17h49723550139a2898E+0x2b4>
90000000010350b8:	38720000 	dbar        	0x0
90000000010350bc:	1c000064 	pcaddu12i   	$a0, 3(0x3)
90000000010350c0:	02d3b084 	addi.d      	$a0, $a0, 1260(0x4ec)
90000000010350c4:	29004098 	st.b        	$s1, $a0, 16(0x10)
90000000010350c8:	28c0e077 	ld.d        	$s0, $sp, 56(0x38)
90000000010350cc:	28c10078 	ld.d        	$s1, $sp, 64(0x40)
90000000010350d0:	28c12061 	ld.d        	$ra, $sp, 72(0x48)
90000000010350d4:	02c14063 	addi.d      	$sp, $sp, 80(0x50)
90000000010350d8:	4c000020 	jirl        	$zero, $ra, 0
90000000010350dc:	1c000044 	pcaddu12i   	$a0, 2(0x2)
90000000010350e0:	02e53484 	addi.d      	$a0, $a0, -1715(0x94d)
90000000010350e4:	0380a005 	ori         	$a1, $zero, 0x28
90000000010350e8:	1c000066 	pcaddu12i   	$a2, 3(0x3)
90000000010350ec:	02c2c0c6 	addi.d      	$a2, $a2, 176(0xb0)
90000000010350f0:	54053800 	bl          	1336(0x538)	# 9000000001035628 <_ZN4core9panicking5panic17h2978341b5c47dc6dE>
90000000010350f4:	002a0000 	break       	0x0
90000000010350f8:	1c000044 	pcaddu12i   	$a0, 2(0x2)
90000000010350fc:	02e32c84 	addi.d      	$a0, $a0, -1845(0x8cb)
9000000001035100:	03804405 	ori         	$a1, $zero, 0x11
9000000001035104:	1c000066 	pcaddu12i   	$a2, 3(0x3)
9000000001035108:	02c1f0c6 	addi.d      	$a2, $a2, 124(0x7c)
900000000103510c:	54051c00 	bl          	1308(0x51c)	# 9000000001035628 <_ZN4core9panicking5panic17h2978341b5c47dc6dE>
9000000001035110:	002a0000 	break       	0x0
9000000001035114:	1c000044 	pcaddu12i   	$a0, 2(0x2)
9000000001035118:	02e1e084 	addi.d      	$a0, $a0, -1928(0x878)
900000000103511c:	1c000067 	pcaddu12i   	$a3, 3(0x3)
9000000001035120:	02c0b0e7 	addi.d      	$a3, $a3, 44(0x2c)
9000000001035124:	0380ac05 	ori         	$a1, $zero, 0x2b
9000000001035128:	02c02066 	addi.d      	$a2, $sp, 8(0x8)
900000000103512c:	1c000068 	pcaddu12i   	$a4, 3(0x3)
9000000001035130:	02c0f108 	addi.d      	$a4, $a4, 60(0x3c)
9000000001035134:	54124c00 	bl          	4684(0x124c)	# 9000000001036380 <_ZN4core6result13unwrap_failed17hc9198e820c2af379E>
9000000001035138:	002a0000 	break       	0x0
900000000103513c:	00000000 	0x00000000

9000000001035140 <_ZN44_$LT$$RF$T$u20$as$u20$core..fmt..Display$GT$3fmt17h70013c6d34807694E>:
9000000001035140:	28c00084 	ld.d        	$a0, $a0, 0
9000000001035144:	50056c00 	b           	1388(0x56c)	# 90000000010356b0 <_ZN57_$LT$core..fmt..Arguments$u20$as$u20$core..fmt..Debug$GT$3fmt17hbd8c37d5f357b60eE>

9000000001035148 <_ZN44_$LT$$RF$T$u20$as$u20$core..fmt..Display$GT$3fmt17hc9b505e7cd10d454E>:
9000000001035148:	001500a6 	move        	$a2, $a1
900000000103514c:	28c02085 	ld.d        	$a1, $a0, 8(0x8)
9000000001035150:	28c00084 	ld.d        	$a0, $a0, 0
9000000001035154:	500f8400 	b           	3972(0xf84)	# 90000000010360d8 <_ZN42_$LT$str$u20$as$u20$core..fmt..Display$GT$3fmt17h27225c16acf76297E>

9000000001035158 <_ZN10loongrCore4test17color_output_test17h56dfdc98ce23630bE>:
9000000001035158:	02fac063 	addi.d      	$sp, $sp, -336(0xeb0)
900000000103515c:	29c52061 	st.d        	$ra, $sp, 328(0x148)
9000000001035160:	29c50076 	st.d        	$fp, $sp, 320(0x140)
9000000001035164:	29c4e07f 	st.d        	$s8, $sp, 312(0x138)
9000000001035168:	29c4c07e 	st.d        	$s7, $sp, 304(0x130)
900000000103516c:	29c4a07d 	st.d        	$s6, $sp, 296(0x128)
9000000001035170:	29c4807c 	st.d        	$s5, $sp, 288(0x120)
9000000001035174:	29c4607b 	st.d        	$s4, $sp, 280(0x118)
9000000001035178:	29c4407a 	st.d        	$s3, $sp, 272(0x110)
900000000103517c:	29c42079 	st.d        	$s2, $sp, 264(0x108)
9000000001035180:	29c40078 	st.d        	$s1, $sp, 256(0x100)
9000000001035184:	29c3e077 	st.d        	$s0, $sp, 248(0xf8)
9000000001035188:	1c000064 	pcaddu12i   	$a0, 3(0x3)
900000000103518c:	28cf4084 	ld.d        	$a0, $a0, 976(0x3d0)
9000000001035190:	1c000048 	pcaddu12i   	$a4, 2(0x2)
9000000001035194:	02e38108 	addi.d      	$a4, $a4, -1824(0x8e0)
9000000001035198:	02c2e067 	addi.d      	$a3, $sp, 184(0xb8)
900000000103519c:	03800c0a 	ori         	$a6, $zero, 0x3
90000000010351a0:	02c30066 	addi.d      	$a2, $sp, 192(0xc0)
90000000010351a4:	02c26069 	addi.d      	$a5, $sp, 152(0x98)
90000000010351a8:	03800818 	ori         	$s1, $zero, 0x2
90000000010351ac:	02c32065 	addi.d      	$a1, $sp, 200(0xc8)
90000000010351b0:	0380001e 	ori         	$s7, $zero, 0x0
90000000010351b4:	29c14068 	st.d        	$a4, $sp, 80(0x50)
90000000010351b8:	29c2e064 	st.d        	$a0, $sp, 184(0xb8)
90000000010351bc:	29c10067 	st.d        	$a3, $sp, 64(0x40)
90000000010351c0:	1c00007c 	pcaddu12i   	$s5, 3(0x3)
90000000010351c4:	28cf239c 	ld.d        	$s5, $s5, 968(0x3c8)
90000000010351c8:	1c000064 	pcaddu12i   	$a0, 3(0x3)
90000000010351cc:	02c02084 	addi.d      	$a0, $a0, 8(0x8)
90000000010351d0:	29c0e06a 	st.d        	$a6, $sp, 56(0x38)
90000000010351d4:	1c00006b 	pcaddu12i   	$a7, 3(0x3)
90000000010351d8:	28cdb16b 	ld.d        	$a7, $a7, 876(0x36c)
90000000010351dc:	29c3c078 	st.d        	$s1, $sp, 240(0xf0)
90000000010351e0:	29c3a069 	st.d        	$a5, $sp, 232(0xe8)
90000000010351e4:	29c38078 	st.d        	$s1, $sp, 224(0xe0)
90000000010351e8:	29c36068 	st.d        	$a4, $sp, 216(0xd8)
90000000010351ec:	29c3406a 	st.d        	$a6, $sp, 208(0xd0)
90000000010351f0:	03800408 	ori         	$a4, $zero, 0x1
90000000010351f4:	001500dd 	move        	$s6, $a2
90000000010351f8:	29c0c066 	st.d        	$a2, $sp, 48(0x30)
90000000010351fc:	0015013f 	move        	$s8, $a5
9000000001035200:	29c2406b 	st.d        	$a7, $sp, 144(0x90)
9000000001035204:	29c32064 	st.d        	$a0, $sp, 200(0xc8)
9000000001035208:	29c2c07c 	st.d        	$s5, $sp, 176(0xb0)
900000000103520c:	29c2a066 	st.d        	$a2, $sp, 168(0xa8)
9000000001035210:	29c2807c 	st.d        	$s5, $sp, 160(0xa0)
9000000001035214:	29c26067 	st.d        	$a3, $sp, 152(0x98)
9000000001035218:	02c16064 	addi.d      	$a0, $sp, 88(0x58)
900000000103521c:	02c22067 	addi.d      	$a3, $sp, 136(0x88)
9000000001035220:	29c1206b 	st.d        	$a7, $sp, 72(0x48)
9000000001035224:	29c22065 	st.d        	$a1, $sp, 136(0x88)
9000000001035228:	1c000065 	pcaddu12i   	$a1, 3(0x3)
900000000103522c:	02fe20a5 	addi.d      	$a1, $a1, -120(0xf88)
9000000001035230:	1c000066 	pcaddu12i   	$a2, 3(0x3)
9000000001035234:	28cc00c6 	ld.d        	$a2, $a2, 768(0x300)
9000000001035238:	29c20068 	st.d        	$a4, $sp, 128(0x80)
900000000103523c:	00150176 	move        	$fp, $a7
9000000001035240:	0015011b 	move        	$s4, $a4
9000000001035244:	29c1e067 	st.d        	$a3, $sp, 120(0x78)
9000000001035248:	29c1a07e 	st.d        	$s7, $sp, 104(0x68)
900000000103524c:	29c18078 	st.d        	$s1, $sp, 96(0x60)
9000000001035250:	29c30066 	st.d        	$a2, $sp, 192(0xc0)
9000000001035254:	001500f9 	move        	$s2, $a3
9000000001035258:	29c16065 	st.d        	$a1, $sp, 88(0x58)
900000000103525c:	57fc07ff 	bl          	-1020(0xffffc04)	# 9000000001034e60 <_ZN10loongrCore5print6_print17h49723550139a2898E>
9000000001035260:	02c32077 	addi.d      	$s0, $sp, 200(0xc8)
9000000001035264:	1c00005a 	pcaddu12i   	$s3, 2(0x2)
9000000001035268:	02e1f35a 	addi.d      	$s3, $s3, -1924(0x87c)
900000000103526c:	29c3407e 	st.d        	$s7, $sp, 208(0xd0)
9000000001035270:	001502e4 	move        	$a0, $s0
9000000001035274:	29c3207a 	st.d        	$s3, $sp, 200(0xc8)
9000000001035278:	29c3607e 	st.d        	$s7, $sp, 216(0xd8)
900000000103527c:	29c3c07e 	st.d        	$s7, $sp, 240(0xf0)
9000000001035280:	29c3a07a 	st.d        	$s3, $sp, 232(0xe8)
9000000001035284:	57fbdfff 	bl          	-1060(0xffffbdc)	# 9000000001034e60 <_ZN10loongrCore5print6_print17h49723550139a2898E>
9000000001035288:	1c000065 	pcaddu12i   	$a1, 3(0x3)
900000000103528c:	28cc20a5 	ld.d        	$a1, $a1, 776(0x308)
9000000001035290:	1c000066 	pcaddu12i   	$a2, 3(0x3)
9000000001035294:	02fdc0c6 	addi.d      	$a2, $a2, -144(0xf70)
9000000001035298:	1c000067 	pcaddu12i   	$a3, 3(0x3)
900000000103529c:	28cac0e7 	ld.d        	$a3, $a3, 688(0x2b0)
90000000010352a0:	1c000068 	pcaddu12i   	$a4, 3(0x3)
90000000010352a4:	02fe0108 	addi.d      	$a4, $a4, -128(0xf80)
90000000010352a8:	29c24076 	st.d        	$fp, $sp, 144(0x90)
90000000010352ac:	29c3c078 	st.d        	$s1, $sp, 240(0xf0)
90000000010352b0:	29c3a07f 	st.d        	$s8, $sp, 232(0xe8)
90000000010352b4:	29c2c07c 	st.d        	$s5, $sp, 176(0xb0)
90000000010352b8:	29c2a07d 	st.d        	$s6, $sp, 168(0xa8)
90000000010352bc:	001503f6 	move        	$fp, $s8
90000000010352c0:	29c0607f 	st.d        	$s8, $sp, 24(0x18)
90000000010352c4:	28c0e07f 	ld.d        	$s8, $sp, 56(0x38)
90000000010352c8:	28c1007d 	ld.d        	$s6, $sp, 64(0x40)
90000000010352cc:	02c16064 	addi.d      	$a0, $sp, 88(0x58)
90000000010352d0:	29c2807c 	st.d        	$s5, $sp, 160(0xa0)
90000000010352d4:	29c2007b 	st.d        	$s4, $sp, 128(0x80)
90000000010352d8:	29c1e079 	st.d        	$s2, $sp, 120(0x78)
90000000010352dc:	29c1a07e 	st.d        	$s7, $sp, 104(0x68)
90000000010352e0:	29c18078 	st.d        	$s1, $sp, 96(0x60)
90000000010352e4:	29c22077 	st.d        	$s0, $sp, 136(0x88)
90000000010352e8:	29c38078 	st.d        	$s1, $sp, 224(0xe0)
90000000010352ec:	29c0807b 	st.d        	$s4, $sp, 32(0x20)
90000000010352f0:	29c0a079 	st.d        	$s2, $sp, 40(0x28)
90000000010352f4:	29c2e065 	st.d        	$a1, $sp, 184(0xb8)
90000000010352f8:	28c14065 	ld.d        	$a1, $sp, 80(0x50)
90000000010352fc:	29c30067 	st.d        	$a3, $sp, 192(0xc0)
9000000001035300:	29c16066 	st.d        	$a2, $sp, 88(0x58)
9000000001035304:	29c2607d 	st.d        	$s6, $sp, 152(0x98)
9000000001035308:	29c36065 	st.d        	$a1, $sp, 216(0xd8)
900000000103530c:	29c3407f 	st.d        	$s8, $sp, 208(0xd0)
9000000001035310:	29c32068 	st.d        	$a4, $sp, 200(0xc8)
9000000001035314:	57fb4fff 	bl          	-1204(0xffffb4c)	# 9000000001034e60 <_ZN10loongrCore5print6_print17h49723550139a2898E>
9000000001035318:	02c32077 	addi.d      	$s0, $sp, 200(0xc8)
900000000103531c:	29c3407e 	st.d        	$s7, $sp, 208(0xd0)
9000000001035320:	29c3207a 	st.d        	$s3, $sp, 200(0xc8)
9000000001035324:	29c3607e 	st.d        	$s7, $sp, 216(0xd8)
9000000001035328:	29c3c07e 	st.d        	$s7, $sp, 240(0xf0)
900000000103532c:	29c3a07a 	st.d        	$s3, $sp, 232(0xe8)
9000000001035330:	001502e4 	move        	$a0, $s0
9000000001035334:	57fb2fff 	bl          	-1236(0xffffb2c)	# 9000000001034e60 <_ZN10loongrCore5print6_print17h49723550139a2898E>
9000000001035338:	1c000065 	pcaddu12i   	$a1, 3(0x3)
900000000103533c:	28c8e0a5 	ld.d        	$a1, $a1, 568(0x238)
9000000001035340:	1c000066 	pcaddu12i   	$a2, 3(0x3)
9000000001035344:	02fc40c6 	addi.d      	$a2, $a2, -240(0xf10)
9000000001035348:	1c000067 	pcaddu12i   	$a3, 3(0x3)
900000000103534c:	28c8e0e7 	ld.d        	$a3, $a3, 568(0x238)
9000000001035350:	1c000068 	pcaddu12i   	$a4, 3(0x3)
9000000001035354:	02fc8108 	addi.d      	$a4, $a4, -224(0xf20)
9000000001035358:	29c3c078 	st.d        	$s1, $sp, 240(0xf0)
900000000103535c:	29c3a076 	st.d        	$fp, $sp, 232(0xe8)
9000000001035360:	28c14076 	ld.d        	$fp, $sp, 80(0x50)
9000000001035364:	02c16064 	addi.d      	$a0, $sp, 88(0x58)
9000000001035368:	29c38078 	st.d        	$s1, $sp, 224(0xe0)
900000000103536c:	29c2007b 	st.d        	$s4, $sp, 128(0x80)
9000000001035370:	29c1e079 	st.d        	$s2, $sp, 120(0x78)
9000000001035374:	29c1a07e 	st.d        	$s7, $sp, 104(0x68)
9000000001035378:	29c18078 	st.d        	$s1, $sp, 96(0x60)
900000000103537c:	29c2c07c 	st.d        	$s5, $sp, 176(0xb0)
9000000001035380:	29c2e065 	st.d        	$a1, $sp, 184(0xb8)
9000000001035384:	28c12065 	ld.d        	$a1, $sp, 72(0x48)
9000000001035388:	29c30067 	st.d        	$a3, $sp, 192(0xc0)
900000000103538c:	29c16066 	st.d        	$a2, $sp, 88(0x58)
9000000001035390:	29c36076 	st.d        	$fp, $sp, 216(0xd8)
9000000001035394:	29c3407f 	st.d        	$s8, $sp, 208(0xd0)
9000000001035398:	29c32068 	st.d        	$a4, $sp, 200(0xc8)
900000000103539c:	29c24065 	st.d        	$a1, $sp, 144(0x90)
90000000010353a0:	28c0c065 	ld.d        	$a1, $sp, 48(0x30)
90000000010353a4:	29c22077 	st.d        	$s0, $sp, 136(0x88)
90000000010353a8:	29c2a065 	st.d        	$a1, $sp, 168(0xa8)
90000000010353ac:	29c2807c 	st.d        	$s5, $sp, 160(0xa0)
90000000010353b0:	29c2607d 	st.d        	$s6, $sp, 152(0x98)
90000000010353b4:	57faafff 	bl          	-1364(0xffffaac)	# 9000000001034e60 <_ZN10loongrCore5print6_print17h49723550139a2898E>
90000000010353b8:	02c32077 	addi.d      	$s0, $sp, 200(0xc8)
90000000010353bc:	29c3407e 	st.d        	$s7, $sp, 208(0xd0)
90000000010353c0:	29c3207a 	st.d        	$s3, $sp, 200(0xc8)
90000000010353c4:	29c3607e 	st.d        	$s7, $sp, 216(0xd8)
90000000010353c8:	29c3c07e 	st.d        	$s7, $sp, 240(0xf0)
90000000010353cc:	29c3a07a 	st.d        	$s3, $sp, 232(0xe8)
90000000010353d0:	001502e4 	move        	$a0, $s0
90000000010353d4:	57fa8fff 	bl          	-1396(0xffffa8c)	# 9000000001034e60 <_ZN10loongrCore5print6_print17h49723550139a2898E>
90000000010353d8:	1c000065 	pcaddu12i   	$a1, 3(0x3)
90000000010353dc:	28c5e0a5 	ld.d        	$a1, $a1, 376(0x178)
90000000010353e0:	1c000067 	pcaddu12i   	$a3, 3(0x3)
90000000010353e4:	02fb00e7 	addi.d      	$a3, $a3, -320(0xec0)
90000000010353e8:	001502df 	move        	$s8, $fp
90000000010353ec:	02c16064 	addi.d      	$a0, $sp, 88(0x58)
90000000010353f0:	29c02067 	st.d        	$a3, $sp, 8(0x8)
90000000010353f4:	1c000068 	pcaddu12i   	$a4, 3(0x3)
90000000010353f8:	28c5b108 	ld.d        	$a4, $a4, 364(0x16c)
90000000010353fc:	29c04068 	st.d        	$a4, $sp, 16(0x10)
9000000001035400:	1c000066 	pcaddu12i   	$a2, 3(0x3)
9000000001035404:	02fb00c6 	addi.d      	$a2, $a2, -320(0xec0)
9000000001035408:	28c0607d 	ld.d        	$s6, $sp, 24(0x18)
900000000103540c:	29c2e065 	st.d        	$a1, $sp, 184(0xb8)
9000000001035410:	29c3c078 	st.d        	$s1, $sp, 240(0xf0)
9000000001035414:	28c10065 	ld.d        	$a1, $sp, 64(0x40)
9000000001035418:	29c2c07c 	st.d        	$s5, $sp, 176(0xb0)
900000000103541c:	28c12079 	ld.d        	$s2, $sp, 72(0x48)
9000000001035420:	28c0e07b 	ld.d        	$s4, $sp, 56(0x38)
9000000001035424:	29c30068 	st.d        	$a4, $sp, 192(0xc0)
9000000001035428:	29c3a07d 	st.d        	$s6, $sp, 232(0xe8)
900000000103542c:	29c38078 	st.d        	$s1, $sp, 224(0xe0)
9000000001035430:	29c36076 	st.d        	$fp, $sp, 216(0xd8)
9000000001035434:	28c0c076 	ld.d        	$fp, $sp, 48(0x30)
9000000001035438:	29c24079 	st.d        	$s2, $sp, 144(0x90)
900000000103543c:	29c3407b 	st.d        	$s4, $sp, 208(0xd0)
9000000001035440:	29c22077 	st.d        	$s0, $sp, 136(0x88)
9000000001035444:	29c32066 	st.d        	$a2, $sp, 200(0xc8)
9000000001035448:	29c2a076 	st.d        	$fp, $sp, 168(0xa8)
900000000103544c:	29c2807c 	st.d        	$s5, $sp, 160(0xa0)
9000000001035450:	29c26065 	st.d        	$a1, $sp, 152(0x98)
9000000001035454:	28c08065 	ld.d        	$a1, $sp, 32(0x20)
9000000001035458:	29c20065 	st.d        	$a1, $sp, 128(0x80)
900000000103545c:	28c0a065 	ld.d        	$a1, $sp, 40(0x28)
9000000001035460:	29c1e065 	st.d        	$a1, $sp, 120(0x78)
9000000001035464:	29c1a07e 	st.d        	$s7, $sp, 104(0x68)
9000000001035468:	29c18078 	st.d        	$s1, $sp, 96(0x60)
900000000103546c:	29c16067 	st.d        	$a3, $sp, 88(0x58)
9000000001035470:	57f9f3ff 	bl          	-1552(0xffff9f0)	# 9000000001034e60 <_ZN10loongrCore5print6_print17h49723550139a2898E>
9000000001035474:	02c32077 	addi.d      	$s0, $sp, 200(0xc8)
9000000001035478:	29c3407e 	st.d        	$s7, $sp, 208(0xd0)
900000000103547c:	29c3207a 	st.d        	$s3, $sp, 200(0xc8)
9000000001035480:	29c3607e 	st.d        	$s7, $sp, 216(0xd8)
9000000001035484:	29c3c07e 	st.d        	$s7, $sp, 240(0xf0)
9000000001035488:	29c3a07a 	st.d        	$s3, $sp, 232(0xe8)
900000000103548c:	001502e4 	move        	$a0, $s0
9000000001035490:	57f9d3ff 	bl          	-1584(0xffff9d0)	# 9000000001034e60 <_ZN10loongrCore5print6_print17h49723550139a2898E>
9000000001035494:	1c000064 	pcaddu12i   	$a0, 3(0x3)
9000000001035498:	28c43084 	ld.d        	$a0, $a0, 268(0x10c)
900000000103549c:	1c000065 	pcaddu12i   	$a1, 3(0x3)
90000000010354a0:	28c330a5 	ld.d        	$a1, $a1, 204(0xcc)
90000000010354a4:	1c000066 	pcaddu12i   	$a2, 3(0x3)
90000000010354a8:	02f930c6 	addi.d      	$a2, $a2, -436(0xe4c)
90000000010354ac:	29c24079 	st.d        	$s2, $sp, 144(0x90)
90000000010354b0:	29c3c078 	st.d        	$s1, $sp, 240(0xf0)
90000000010354b4:	29c3a07d 	st.d        	$s6, $sp, 232(0xe8)
90000000010354b8:	29c38078 	st.d        	$s1, $sp, 224(0xe0)
90000000010354bc:	29c3607f 	st.d        	$s8, $sp, 216(0xd8)
90000000010354c0:	29c3407b 	st.d        	$s4, $sp, 208(0xd0)
90000000010354c4:	28c08079 	ld.d        	$s2, $sp, 32(0x20)
90000000010354c8:	28c1007b 	ld.d        	$s4, $sp, 64(0x40)
90000000010354cc:	28c0a07d 	ld.d        	$s6, $sp, 40(0x28)
90000000010354d0:	28c0207f 	ld.d        	$s8, $sp, 8(0x8)
90000000010354d4:	29c2c07c 	st.d        	$s5, $sp, 176(0xb0)
90000000010354d8:	29c2a076 	st.d        	$fp, $sp, 168(0xa8)
90000000010354dc:	29c2807c 	st.d        	$s5, $sp, 160(0xa0)
90000000010354e0:	29c22077 	st.d        	$s0, $sp, 136(0x88)
90000000010354e4:	001090a7 	add.d       	$a3, $a1, $a0
90000000010354e8:	02c16064 	addi.d      	$a0, $sp, 88(0x58)
90000000010354ec:	29c2e065 	st.d        	$a1, $sp, 184(0xb8)
90000000010354f0:	29c32066 	st.d        	$a2, $sp, 200(0xc8)
90000000010354f4:	29c30067 	st.d        	$a3, $sp, 192(0xc0)
90000000010354f8:	29c20079 	st.d        	$s2, $sp, 128(0x80)
90000000010354fc:	29c1e07d 	st.d        	$s6, $sp, 120(0x78)
9000000001035500:	29c1a07e 	st.d        	$s7, $sp, 104(0x68)
9000000001035504:	29c18078 	st.d        	$s1, $sp, 96(0x60)
9000000001035508:	29c2607b 	st.d        	$s4, $sp, 152(0x98)
900000000103550c:	29c1607f 	st.d        	$s8, $sp, 88(0x58)
9000000001035510:	57f953ff 	bl          	-1712(0xffff950)	# 9000000001034e60 <_ZN10loongrCore5print6_print17h49723550139a2898E>
9000000001035514:	02c32077 	addi.d      	$s0, $sp, 200(0xc8)
9000000001035518:	29c3407e 	st.d        	$s7, $sp, 208(0xd0)
900000000103551c:	29c3207a 	st.d        	$s3, $sp, 200(0xc8)
9000000001035520:	29c3607e 	st.d        	$s7, $sp, 216(0xd8)
9000000001035524:	29c3c07e 	st.d        	$s7, $sp, 240(0xf0)
9000000001035528:	29c3a07a 	st.d        	$s3, $sp, 232(0xe8)
900000000103552c:	001502e4 	move        	$a0, $s0
9000000001035530:	57f933ff 	bl          	-1744(0xffff930)	# 9000000001034e60 <_ZN10loongrCore5print6_print17h49723550139a2898E>
9000000001035534:	1c000065 	pcaddu12i   	$a1, 3(0x3)
9000000001035538:	28c190a5 	ld.d        	$a1, $a1, 100(0x64)
900000000103553c:	1c000066 	pcaddu12i   	$a2, 3(0x3)
9000000001035540:	02f790c6 	addi.d      	$a2, $a2, -540(0xde4)
9000000001035544:	28c04067 	ld.d        	$a3, $sp, 16(0x10)
9000000001035548:	29c3c078 	st.d        	$s1, $sp, 240(0xf0)
900000000103554c:	02c16064 	addi.d      	$a0, $sp, 88(0x58)
9000000001035550:	29c2c07c 	st.d        	$s5, $sp, 176(0xb0)
9000000001035554:	29c2a076 	st.d        	$fp, $sp, 168(0xa8)
9000000001035558:	29c2807c 	st.d        	$s5, $sp, 160(0xa0)
900000000103555c:	29c20079 	st.d        	$s2, $sp, 128(0x80)
9000000001035560:	29c1e07d 	st.d        	$s6, $sp, 120(0x78)
9000000001035564:	29c1a07e 	st.d        	$s7, $sp, 104(0x68)
9000000001035568:	29c18078 	st.d        	$s1, $sp, 96(0x60)
900000000103556c:	29c2607b 	st.d        	$s4, $sp, 152(0x98)
9000000001035570:	29c1607f 	st.d        	$s8, $sp, 88(0x58)
9000000001035574:	29c30065 	st.d        	$a1, $sp, 192(0xc0)
9000000001035578:	29c2e067 	st.d        	$a3, $sp, 184(0xb8)
900000000103557c:	28c12067 	ld.d        	$a3, $sp, 72(0x48)
9000000001035580:	29c24067 	st.d        	$a3, $sp, 144(0x90)
9000000001035584:	28c06067 	ld.d        	$a3, $sp, 24(0x18)
9000000001035588:	29c22077 	st.d        	$s0, $sp, 136(0x88)
900000000103558c:	29c3a067 	st.d        	$a3, $sp, 232(0xe8)
9000000001035590:	28c14067 	ld.d        	$a3, $sp, 80(0x50)
9000000001035594:	29c38078 	st.d        	$s1, $sp, 224(0xe0)
9000000001035598:	29c36067 	st.d        	$a3, $sp, 216(0xd8)
900000000103559c:	28c0e067 	ld.d        	$a3, $sp, 56(0x38)
90000000010355a0:	29c34067 	st.d        	$a3, $sp, 208(0xd0)
90000000010355a4:	29c32066 	st.d        	$a2, $sp, 200(0xc8)
90000000010355a8:	57f8bbff 	bl          	-1864(0xffff8b8)	# 9000000001034e60 <_ZN10loongrCore5print6_print17h49723550139a2898E>
90000000010355ac:	02c32064 	addi.d      	$a0, $sp, 200(0xc8)
90000000010355b0:	29c3407e 	st.d        	$s7, $sp, 208(0xd0)
90000000010355b4:	29c3207a 	st.d        	$s3, $sp, 200(0xc8)
90000000010355b8:	29c3607e 	st.d        	$s7, $sp, 216(0xd8)
90000000010355bc:	29c3c07e 	st.d        	$s7, $sp, 240(0xf0)
90000000010355c0:	29c3a07a 	st.d        	$s3, $sp, 232(0xe8)
90000000010355c4:	57f89fff 	bl          	-1892(0xffff89c)	# 9000000001034e60 <_ZN10loongrCore5print6_print17h49723550139a2898E>
90000000010355c8:	28c3e077 	ld.d        	$s0, $sp, 248(0xf8)
90000000010355cc:	28c40078 	ld.d        	$s1, $sp, 256(0x100)
90000000010355d0:	28c42079 	ld.d        	$s2, $sp, 264(0x108)
90000000010355d4:	28c4407a 	ld.d        	$s3, $sp, 272(0x110)
90000000010355d8:	28c4607b 	ld.d        	$s4, $sp, 280(0x118)
90000000010355dc:	28c4807c 	ld.d        	$s5, $sp, 288(0x120)
90000000010355e0:	28c4a07d 	ld.d        	$s6, $sp, 296(0x128)
90000000010355e4:	28c4c07e 	ld.d        	$s7, $sp, 304(0x130)
90000000010355e8:	28c4e07f 	ld.d        	$s8, $sp, 312(0x138)
90000000010355ec:	28c50076 	ld.d        	$fp, $sp, 320(0x140)
90000000010355f0:	28c52061 	ld.d        	$ra, $sp, 328(0x148)
90000000010355f4:	02c54063 	addi.d      	$sp, $sp, 336(0x150)
90000000010355f8:	4c000020 	jirl        	$zero, $ra, 0
90000000010355fc:	00000000 	0x00000000

9000000001035600 <_ZN60_$LT$spin..once..Finish$u20$as$u20$core..ops..drop..Drop$GT$4drop17hf8fc67a636c75342E>:
9000000001035600:	2a002085 	ld.bu       	$a1, $a0, 8(0x8)
9000000001035604:	400018a0 	beqz        	$a1, 24(0x18)	# 900000000103561c <_ZN60_$LT$spin..once..Finish$u20$as$u20$core..ops..drop..Drop$GT$4drop17hf8fc67a636c75342E+0x1c>
9000000001035608:	28c00084 	ld.d        	$a0, $a0, 0
900000000103560c:	03800c05 	ori         	$a1, $zero, 0x3
9000000001035610:	38720000 	dbar        	0x0
9000000001035614:	29c00085 	st.d        	$a1, $a0, 0
9000000001035618:	38720000 	dbar        	0x0
900000000103561c:	4c000020 	jirl        	$zero, $ra, 0

9000000001035620 <_ZN4core3ptr88drop_in_place$LT$core..panic..panic_info..PanicInfo..internal_constructor..NoPayload$GT$17h371d88bdde94a61aE>:
9000000001035620:	4c000020 	jirl        	$zero, $ra, 0
9000000001035624:	00000000 	0x00000000

9000000001035628 <_ZN4core9panicking5panic17h2978341b5c47dc6dE>:
9000000001035628:	02fec063 	addi.d      	$sp, $sp, -80(0xfb0)
900000000103562c:	29c12061 	st.d        	$ra, $sp, 72(0x48)
9000000001035630:	1c000028 	pcaddu12i   	$a4, 1(0x1)
9000000001035634:	02d3e108 	addi.d      	$a4, $a4, 1272(0x4f8)
9000000001035638:	03800009 	ori         	$a5, $zero, 0x0
900000000103563c:	03800407 	ori         	$a3, $zero, 0x1
9000000001035640:	29c10065 	st.d        	$a1, $sp, 64(0x40)
9000000001035644:	29c0e064 	st.d        	$a0, $sp, 56(0x38)
9000000001035648:	02c02064 	addi.d      	$a0, $sp, 8(0x8)
900000000103564c:	001500c5 	move        	$a1, $a2
9000000001035650:	29c0c069 	st.d        	$a5, $sp, 48(0x30)
9000000001035654:	29c0a068 	st.d        	$a4, $sp, 40(0x28)
9000000001035658:	29c06069 	st.d        	$a5, $sp, 24(0x18)
900000000103565c:	29c04067 	st.d        	$a3, $sp, 16(0x10)
9000000001035660:	02c0e067 	addi.d      	$a3, $sp, 56(0x38)
9000000001035664:	29c02067 	st.d        	$a3, $sp, 8(0x8)
9000000001035668:	54000800 	bl          	8(0x8)	# 9000000001035670 <_ZN4core9panicking9panic_fmt17h7deed37ee899fd65E>
900000000103566c:	002a0000 	break       	0x0

9000000001035670 <_ZN4core9panicking9panic_fmt17h7deed37ee899fd65E>:
9000000001035670:	02ff4063 	addi.d      	$sp, $sp, -48(0xfd0)
9000000001035674:	29c0a061 	st.d        	$ra, $sp, 40(0x28)
9000000001035678:	29c08065 	st.d        	$a1, $sp, 32(0x20)
900000000103567c:	29c06064 	st.d        	$a0, $sp, 24(0x18)
9000000001035680:	1c000064 	pcaddu12i   	$a0, 3(0x3)
9000000001035684:	02f34084 	addi.d      	$a0, $a0, -816(0xcd0)
9000000001035688:	29c04064 	st.d        	$a0, $sp, 16(0x10)
900000000103568c:	1c000024 	pcaddu12i   	$a0, 1(0x1)
9000000001035690:	02d27084 	addi.d      	$a0, $a0, 1180(0x49c)
9000000001035694:	29c02064 	st.d        	$a0, $sp, 8(0x8)
9000000001035698:	02c02064 	addi.d      	$a0, $sp, 8(0x8)
900000000103569c:	57f44fff 	bl          	-2996(0xffff44c)	# 9000000001034ae8 <rust_begin_unwind>
90000000010356a0:	002a0000 	break       	0x0
90000000010356a4:	00000000 	0x00000000

90000000010356a8 <_ZN4core3ops8function6FnOnce9call_once17hccf060935f5e0e09E.llvm.16997549962013311943>:
90000000010356a8:	28c00084 	ld.d        	$a0, $a0, 0
90000000010356ac:	50000000 	b           	0	# 90000000010356ac <_ZN4core3ops8function6FnOnce9call_once17hccf060935f5e0e09E.llvm.16997549962013311943+0x4>

90000000010356b0 <_ZN57_$LT$core..fmt..Arguments$u20$as$u20$core..fmt..Debug$GT$3fmt17hbd8c37d5f357b60eE>:
90000000010356b0:	02ff0063 	addi.d      	$sp, $sp, -64(0xfc0)
90000000010356b4:	29c0e061 	st.d        	$ra, $sp, 56(0x38)
90000000010356b8:	28c00086 	ld.d        	$a2, $a0, 0
90000000010356bc:	28c02088 	ld.d        	$a4, $a0, 8(0x8)
90000000010356c0:	28c0a0a7 	ld.d        	$a3, $a1, 40(0x28)
90000000010356c4:	28c080a5 	ld.d        	$a1, $a1, 32(0x20)
90000000010356c8:	28c08089 	ld.d        	$a5, $a0, 32(0x20)
90000000010356cc:	29c04068 	st.d        	$a4, $sp, 16(0x10)
90000000010356d0:	29c02066 	st.d        	$a2, $sp, 8(0x8)
90000000010356d4:	28c04086 	ld.d        	$a2, $a0, 16(0x10)
90000000010356d8:	28c06088 	ld.d        	$a4, $a0, 24(0x18)
90000000010356dc:	28c0a084 	ld.d        	$a0, $a0, 40(0x28)
90000000010356e0:	29c0a069 	st.d        	$a5, $sp, 40(0x28)
90000000010356e4:	29c0c064 	st.d        	$a0, $sp, 48(0x30)
90000000010356e8:	29c06066 	st.d        	$a2, $sp, 24(0x18)
90000000010356ec:	001500a4 	move        	$a0, $a1
90000000010356f0:	02c02066 	addi.d      	$a2, $sp, 8(0x8)
90000000010356f4:	001500e5 	move        	$a1, $a3
90000000010356f8:	29c08068 	st.d        	$a4, $sp, 32(0x20)
90000000010356fc:	54001400 	bl          	20(0x14)	# 9000000001035710 <_ZN4core3fmt5write17h62bbab114cb7dd1fE>
9000000001035700:	28c0e061 	ld.d        	$ra, $sp, 56(0x38)
9000000001035704:	02c10063 	addi.d      	$sp, $sp, 64(0x40)
9000000001035708:	4c000020 	jirl        	$zero, $ra, 0
900000000103570c:	00000000 	0x00000000

9000000001035710 <_ZN4core3fmt5write17h62bbab114cb7dd1fE>:
9000000001035710:	02fdc063 	addi.d      	$sp, $sp, -144(0xf70)
9000000001035714:	29c22061 	st.d        	$ra, $sp, 136(0x88)
9000000001035718:	29c2007f 	st.d        	$s8, $sp, 128(0x80)
900000000103571c:	29c1e07e 	st.d        	$s7, $sp, 120(0x78)
9000000001035720:	29c1c07d 	st.d        	$s6, $sp, 112(0x70)
9000000001035724:	29c1a07c 	st.d        	$s5, $sp, 104(0x68)
9000000001035728:	29c1807b 	st.d        	$s4, $sp, 96(0x60)
900000000103572c:	29c1607a 	st.d        	$s3, $sp, 88(0x58)
9000000001035730:	29c14079 	st.d        	$s2, $sp, 80(0x50)
9000000001035734:	29c12078 	st.d        	$s1, $sp, 72(0x48)
9000000001035738:	29c10077 	st.d        	$s0, $sp, 64(0x40)
900000000103573c:	001500d7 	move        	$s0, $a2
9000000001035740:	03800c06 	ori         	$a2, $zero, 0x3
9000000001035744:	03800019 	ori         	$s2, $zero, 0x0
9000000001035748:	2900e066 	st.b        	$a2, $sp, 56(0x38)
900000000103574c:	29c0a065 	st.d        	$a1, $sp, 40(0x28)
9000000001035750:	29c08064 	st.d        	$a0, $sp, 32(0x20)
9000000001035754:	00150324 	move        	$a0, $s2
9000000001035758:	29c04079 	st.d        	$s2, $sp, 16(0x10)
900000000103575c:	29c00079 	st.d        	$s2, $sp, 0
9000000001035760:	16000404 	lu32i.d     	$a0, 32(0x20)
9000000001035764:	29c0c064 	st.d        	$a0, $sp, 48(0x30)
9000000001035768:	28c042e4 	ld.d        	$a0, $s0, 16(0x10)
900000000103576c:	40013c80 	beqz        	$a0, 316(0x13c)	# 90000000010358a8 <_ZN4core3fmt5write17h62bbab114cb7dd1fE+0x198>
9000000001035770:	28c062e5 	ld.d        	$a1, $s0, 24(0x18)
9000000001035774:	00410ca6 	slli.d      	$a2, $a1, 0x3
9000000001035778:	004118a7 	slli.d      	$a3, $a1, 0x6
900000000103577c:	001198fa 	sub.d       	$s3, $a3, $a2
9000000001035780:	40019f40 	beqz        	$s3, 412(0x19c)	# 900000000103591c <_ZN4core3fmt5write17h62bbab114cb7dd1fE+0x20c>
9000000001035784:	02bfe006 	addi.w      	$a2, $zero, -8(0xff8)
9000000001035788:	02c0609b 	addi.d      	$s4, $a0, 24(0x18)
900000000103578c:	28c002e4 	ld.d        	$a0, $s0, 0
9000000001035790:	0380601d 	ori         	$s6, $zero, 0x18
9000000001035794:	0380001e 	ori         	$s7, $zero, 0x0
9000000001035798:	0380041f 	ori         	$s8, $zero, 0x1
900000000103579c:	02c00078 	addi.d      	$s1, $sp, 0
90000000010357a0:	002d18a5 	alsl.d      	$a1, $a1, $a2, 0x3
90000000010357a4:	00450ca5 	srli.d      	$a1, $a1, 0x3
90000000010357a8:	02c004b9 	addi.d      	$s2, $a1, 1(0x1)
90000000010357ac:	02c0209c 	addi.d      	$s5, $a0, 8(0x8)
90000000010357b0:	28c00386 	ld.d        	$a2, $s5, 0
90000000010357b4:	40001cc0 	beqz        	$a2, 28(0x1c)	# 90000000010357d0 <_ZN4core3fmt5write17h62bbab114cb7dd1fE+0xc0>
90000000010357b8:	28c0a064 	ld.d        	$a0, $sp, 40(0x28)
90000000010357bc:	28ffe385 	ld.d        	$a1, $s5, -8(0xff8)
90000000010357c0:	28c06087 	ld.d        	$a3, $a0, 24(0x18)
90000000010357c4:	28c08064 	ld.d        	$a0, $sp, 32(0x20)
90000000010357c8:	4c0000e1 	jirl        	$ra, $a3, 0
90000000010357cc:	5c018080 	bne         	$a0, $zero, 384(0x180)	# 900000000103594c <_ZN4core3fmt5write17h62bbab114cb7dd1fE+0x23c>
90000000010357d0:	28804364 	ld.w        	$a0, $s4, 16(0x10)
90000000010357d4:	28c082e5 	ld.d        	$a1, $s0, 32(0x20)
90000000010357d8:	2980d064 	st.w        	$a0, $sp, 52(0x34)
90000000010357dc:	38207764 	ldx.bu      	$a0, $s4, $s6
90000000010357e0:	2900e064 	st.b        	$a0, $sp, 56(0x38)
90000000010357e4:	28805364 	ld.w        	$a0, $s4, 20(0x14)
90000000010357e8:	2980c064 	st.w        	$a0, $sp, 48(0x30)
90000000010357ec:	28c00367 	ld.d        	$a3, $s4, 0
90000000010357f0:	28c02364 	ld.d        	$a0, $s4, 8(0x8)
90000000010357f4:	400030e0 	beqz        	$a3, 48(0x30)	# 9000000001035824 <_ZN4core3fmt5write17h62bbab114cb7dd1fE+0x114>
90000000010357f8:	001503c6 	move        	$a2, $s7
90000000010357fc:	5c002cff 	bne         	$a3, $s8, 44(0x2c)	# 9000000001035828 <_ZN4core3fmt5write17h62bbab114cb7dd1fE+0x118>
9000000001035800:	002d9486 	alsl.d      	$a2, $a0, $a1, 0x4
9000000001035804:	28c020c7 	ld.d        	$a3, $a2, 8(0x8)
9000000001035808:	1c000008 	pcaddu12i   	$a4, 0
900000000103580c:	02fa8108 	addi.d      	$a4, $a4, -352(0xea0)
9000000001035810:	001503c6 	move        	$a2, $s7
9000000001035814:	5c0014e8 	bne         	$a3, $a4, 20(0x14)	# 9000000001035828 <_ZN4core3fmt5write17h62bbab114cb7dd1fE+0x118>
9000000001035818:	00411084 	slli.d      	$a0, $a0, 0x4
900000000103581c:	380c10a4 	ldx.d       	$a0, $a1, $a0
9000000001035820:	28c00084 	ld.d        	$a0, $a0, 0
9000000001035824:	001503e6 	move        	$a2, $s8
9000000001035828:	29c02064 	st.d        	$a0, $sp, 8(0x8)
900000000103582c:	29c00066 	st.d        	$a2, $sp, 0
9000000001035830:	28ffc367 	ld.d        	$a3, $s4, -16(0xff0)
9000000001035834:	28ffe364 	ld.d        	$a0, $s4, -8(0xff8)
9000000001035838:	400030e0 	beqz        	$a3, 48(0x30)	# 9000000001035868 <_ZN4core3fmt5write17h62bbab114cb7dd1fE+0x158>
900000000103583c:	001503c6 	move        	$a2, $s7
9000000001035840:	5c002cff 	bne         	$a3, $s8, 44(0x2c)	# 900000000103586c <_ZN4core3fmt5write17h62bbab114cb7dd1fE+0x15c>
9000000001035844:	002d9486 	alsl.d      	$a2, $a0, $a1, 0x4
9000000001035848:	28c020c7 	ld.d        	$a3, $a2, 8(0x8)
900000000103584c:	1c000008 	pcaddu12i   	$a4, 0
9000000001035850:	02f97108 	addi.d      	$a4, $a4, -420(0xe5c)
9000000001035854:	001503c6 	move        	$a2, $s7
9000000001035858:	5c0014e8 	bne         	$a3, $a4, 20(0x14)	# 900000000103586c <_ZN4core3fmt5write17h62bbab114cb7dd1fE+0x15c>
900000000103585c:	00411084 	slli.d      	$a0, $a0, 0x4
9000000001035860:	380c10a4 	ldx.d       	$a0, $a1, $a0
9000000001035864:	28c00084 	ld.d        	$a0, $a0, 0
9000000001035868:	001503e6 	move        	$a2, $s8
900000000103586c:	29c06064 	st.d        	$a0, $sp, 24(0x18)
9000000001035870:	29c04066 	st.d        	$a2, $sp, 16(0x10)
9000000001035874:	28ffa366 	ld.d        	$a2, $s4, -24(0xfe8)
9000000001035878:	004110c4 	slli.d      	$a0, $a2, 0x4
900000000103587c:	380c10a4 	ldx.d       	$a0, $a1, $a0
9000000001035880:	002d94c5 	alsl.d      	$a1, $a2, $a1, 0x4
9000000001035884:	28c020a6 	ld.d        	$a2, $a1, 8(0x8)
9000000001035888:	00150305 	move        	$a1, $s1
900000000103588c:	4c0000c1 	jirl        	$ra, $a2, 0
9000000001035890:	5c00bc80 	bne         	$a0, $zero, 188(0xbc)	# 900000000103594c <_ZN4core3fmt5write17h62bbab114cb7dd1fE+0x23c>
9000000001035894:	02c0e37b 	addi.d      	$s4, $s4, 56(0x38)
9000000001035898:	02ff235a 	addi.d      	$s3, $s3, -56(0xfc8)
900000000103589c:	02c0439c 	addi.d      	$s5, $s5, 16(0x10)
90000000010358a0:	47ff135f 	bnez        	$s3, -240(0x7fff10)	# 90000000010357b0 <_ZN4core3fmt5write17h62bbab114cb7dd1fE+0xa0>
90000000010358a4:	50007800 	b           	120(0x78)	# 900000000103591c <_ZN4core3fmt5write17h62bbab114cb7dd1fE+0x20c>
90000000010358a8:	28c0a2e4 	ld.d        	$a0, $s0, 40(0x28)
90000000010358ac:	40007080 	beqz        	$a0, 112(0x70)	# 900000000103591c <_ZN4core3fmt5write17h62bbab114cb7dd1fE+0x20c>
90000000010358b0:	28c082e5 	ld.d        	$a1, $s0, 32(0x20)
90000000010358b4:	02bfc006 	addi.w      	$a2, $zero, -16(0xff0)
90000000010358b8:	0041109a 	slli.d      	$s3, $a0, 0x4
90000000010358bc:	02c00078 	addi.d      	$s1, $sp, 0
90000000010358c0:	002d9886 	alsl.d      	$a2, $a0, $a2, 0x4
90000000010358c4:	28c002e4 	ld.d        	$a0, $s0, 0
90000000010358c8:	004510c6 	srli.d      	$a2, $a2, 0x4
90000000010358cc:	02c004d9 	addi.d      	$s2, $a2, 1(0x1)
90000000010358d0:	02c020bb 	addi.d      	$s4, $a1, 8(0x8)
90000000010358d4:	02c0209c 	addi.d      	$s5, $a0, 8(0x8)
90000000010358d8:	28c00386 	ld.d        	$a2, $s5, 0
90000000010358dc:	40001cc0 	beqz        	$a2, 28(0x1c)	# 90000000010358f8 <_ZN4core3fmt5write17h62bbab114cb7dd1fE+0x1e8>
90000000010358e0:	28c0a064 	ld.d        	$a0, $sp, 40(0x28)
90000000010358e4:	28ffe385 	ld.d        	$a1, $s5, -8(0xff8)
90000000010358e8:	28c06087 	ld.d        	$a3, $a0, 24(0x18)
90000000010358ec:	28c08064 	ld.d        	$a0, $sp, 32(0x20)
90000000010358f0:	4c0000e1 	jirl        	$ra, $a3, 0
90000000010358f4:	5c005880 	bne         	$a0, $zero, 88(0x58)	# 900000000103594c <_ZN4core3fmt5write17h62bbab114cb7dd1fE+0x23c>
90000000010358f8:	28ffe364 	ld.d        	$a0, $s4, -8(0xff8)
90000000010358fc:	28c00366 	ld.d        	$a2, $s4, 0
9000000001035900:	00150305 	move        	$a1, $s1
9000000001035904:	4c0000c1 	jirl        	$ra, $a2, 0
9000000001035908:	5c004480 	bne         	$a0, $zero, 68(0x44)	# 900000000103594c <_ZN4core3fmt5write17h62bbab114cb7dd1fE+0x23c>
900000000103590c:	02ffc35a 	addi.d      	$s3, $s3, -16(0xff0)
9000000001035910:	02c0437b 	addi.d      	$s4, $s4, 16(0x10)
9000000001035914:	02c0439c 	addi.d      	$s5, $s5, 16(0x10)
9000000001035918:	47ffc35f 	bnez        	$s3, -64(0x7fffc0)	# 90000000010358d8 <_ZN4core3fmt5write17h62bbab114cb7dd1fE+0x1c8>
900000000103591c:	28c022e4 	ld.d        	$a0, $s0, 8(0x8)
9000000001035920:	6c003724 	bgeu        	$s2, $a0, 52(0x34)	# 9000000001035954 <_ZN4core3fmt5write17h62bbab114cb7dd1fE+0x244>
9000000001035924:	28c002e4 	ld.d        	$a0, $s0, 0
9000000001035928:	00411325 	slli.d      	$a1, $s2, 0x4
900000000103592c:	380c1485 	ldx.d       	$a1, $a0, $a1
9000000001035930:	002d9324 	alsl.d      	$a0, $s2, $a0, 0x4
9000000001035934:	28c02086 	ld.d        	$a2, $a0, 8(0x8)
9000000001035938:	28c0a064 	ld.d        	$a0, $sp, 40(0x28)
900000000103593c:	28c06087 	ld.d        	$a3, $a0, 24(0x18)
9000000001035940:	28c08064 	ld.d        	$a0, $sp, 32(0x20)
9000000001035944:	4c0000e1 	jirl        	$ra, $a3, 0
9000000001035948:	58000c80 	beq         	$a0, $zero, 12(0xc)	# 9000000001035954 <_ZN4core3fmt5write17h62bbab114cb7dd1fE+0x244>
900000000103594c:	03800404 	ori         	$a0, $zero, 0x1
9000000001035950:	50000800 	b           	8(0x8)	# 9000000001035958 <_ZN4core3fmt5write17h62bbab114cb7dd1fE+0x248>
9000000001035954:	03800004 	ori         	$a0, $zero, 0x0
9000000001035958:	28c10077 	ld.d        	$s0, $sp, 64(0x40)
900000000103595c:	28c12078 	ld.d        	$s1, $sp, 72(0x48)
9000000001035960:	28c14079 	ld.d        	$s2, $sp, 80(0x50)
9000000001035964:	28c1607a 	ld.d        	$s3, $sp, 88(0x58)
9000000001035968:	28c1807b 	ld.d        	$s4, $sp, 96(0x60)
900000000103596c:	28c1a07c 	ld.d        	$s5, $sp, 104(0x68)
9000000001035970:	28c1c07d 	ld.d        	$s6, $sp, 112(0x70)
9000000001035974:	28c1e07e 	ld.d        	$s7, $sp, 120(0x78)
9000000001035978:	28c2007f 	ld.d        	$s8, $sp, 128(0x80)
900000000103597c:	28c22061 	ld.d        	$ra, $sp, 136(0x88)
9000000001035980:	02c24063 	addi.d      	$sp, $sp, 144(0x90)
9000000001035984:	4c000020 	jirl        	$zero, $ra, 0

9000000001035988 <_ZN4core3fmt9Formatter12pad_integral17habf59e458b07c8f4E>:
9000000001035988:	02fe8063 	addi.d      	$sp, $sp, -96(0xfa0)
900000000103598c:	29c16061 	st.d        	$ra, $sp, 88(0x58)
9000000001035990:	29c14076 	st.d        	$fp, $sp, 80(0x50)
9000000001035994:	29c1207f 	st.d        	$s8, $sp, 72(0x48)
9000000001035998:	29c1007e 	st.d        	$s7, $sp, 64(0x40)
900000000103599c:	29c0e07d 	st.d        	$s6, $sp, 56(0x38)
90000000010359a0:	29c0c07c 	st.d        	$s5, $sp, 48(0x30)
90000000010359a4:	29c0a07b 	st.d        	$s4, $sp, 40(0x28)
90000000010359a8:	29c0807a 	st.d        	$s3, $sp, 32(0x20)
90000000010359ac:	29c06079 	st.d        	$s2, $sp, 24(0x18)
90000000010359b0:	29c04078 	st.d        	$s1, $sp, 16(0x10)
90000000010359b4:	29c02077 	st.d        	$s0, $sp, 8(0x8)
90000000010359b8:	00150138 	move        	$s1, $a5
90000000010359bc:	00150119 	move        	$s2, $a4
90000000010359c0:	001500fb 	move        	$s4, $a3
90000000010359c4:	001500dc 	move        	$s5, $a2
90000000010359c8:	00150097 	move        	$s0, $a0
90000000010359cc:	400054a0 	beqz        	$a1, 84(0x54)	# 9000000001035a20 <_ZN4core3fmt9Formatter12pad_integral17habf59e458b07c8f4E+0x98>
90000000010359d0:	2880c2e4 	ld.w        	$a0, $s0, 48(0x30)
90000000010359d4:	0380ac06 	ori         	$a2, $zero, 0x2b
90000000010359d8:	14002207 	lu12i.w     	$a3, 272(0x110)
90000000010359dc:	03400485 	andi        	$a1, $a0, 0x1
90000000010359e0:	001314c6 	maskeqz     	$a2, $a2, $a1
90000000010359e4:	001394e7 	masknez     	$a3, $a3, $a1
90000000010359e8:	00df00a5 	bstrpick.d  	$a1, $a1, 0x1f, 0x0
90000000010359ec:	001518fd 	or          	$s6, $a3, $a2
90000000010359f0:	0010e0b6 	add.d       	$fp, $a1, $s1
90000000010359f4:	03401084 	andi        	$a0, $a0, 0x4
90000000010359f8:	40003c80 	beqz        	$a0, 60(0x3c)	# 9000000001035a34 <_ZN4core3fmt9Formatter12pad_integral17habf59e458b07c8f4E+0xac>
90000000010359fc:	0010ef85 	add.d       	$a1, $s5, $s4
9000000001035a00:	03800006 	ori         	$a2, $zero, 0x0
9000000001035a04:	00150384 	move        	$a0, $s5
9000000001035a08:	540af000 	bl          	2800(0xaf0)	# 90000000010364f8 <_ZN102_$LT$core..iter..adapters..map..Map$LT$I$C$F$GT$$u20$as$u20$core..iter..traits..iterator..Iterator$GT$4fold17h9daeac1da71383a4E>
9000000001035a0c:	0010d896 	add.d       	$fp, $a0, $fp
9000000001035a10:	28c002e4 	ld.d        	$a0, $s0, 0
9000000001035a14:	03800405 	ori         	$a1, $zero, 0x1
9000000001035a18:	58002c85 	beq         	$a0, $a1, 44(0x2c)	# 9000000001035a44 <_ZN4core3fmt9Formatter12pad_integral17habf59e458b07c8f4E+0xbc>
9000000001035a1c:	50009800 	b           	152(0x98)	# 9000000001035ab4 <_ZN4core3fmt9Formatter12pad_integral17habf59e458b07c8f4E+0x12c>
9000000001035a20:	2880c2e4 	ld.w        	$a0, $s0, 48(0x30)
9000000001035a24:	02c00716 	addi.d      	$fp, $s1, 1(0x1)
9000000001035a28:	0380b41d 	ori         	$s6, $zero, 0x2d
9000000001035a2c:	03401084 	andi        	$a0, $a0, 0x4
9000000001035a30:	47ffcc9f 	bnez        	$a0, -52(0x7fffcc)	# 90000000010359fc <_ZN4core3fmt9Formatter12pad_integral17habf59e458b07c8f4E+0x74>
9000000001035a34:	0380001c 	ori         	$s5, $zero, 0x0
9000000001035a38:	28c002e4 	ld.d        	$a0, $s0, 0
9000000001035a3c:	03800405 	ori         	$a1, $zero, 0x1
9000000001035a40:	5c007485 	bne         	$a0, $a1, 116(0x74)	# 9000000001035ab4 <_ZN4core3fmt9Formatter12pad_integral17habf59e458b07c8f4E+0x12c>
9000000001035a44:	28c022fe 	ld.d        	$s7, $s0, 8(0x8)
9000000001035a48:	0012fac4 	sltu        	$a0, $fp, $s7
9000000001035a4c:	03c00484 	xori        	$a0, $a0, 0x1
9000000001035a50:	5c006480 	bne         	$a0, $zero, 100(0x64)	# 9000000001035ab4 <_ZN4core3fmt9Formatter12pad_integral17habf59e458b07c8f4E+0x12c>
9000000001035a54:	2a00c2e4 	ld.bu       	$a0, $s0, 48(0x30)
9000000001035a58:	03402084 	andi        	$a0, $a0, 0x8
9000000001035a5c:	4400cc80 	bnez        	$a0, 204(0xcc)	# 9000000001035b28 <_ZN4core3fmt9Formatter12pad_integral17habf59e458b07c8f4E+0x1a0>
9000000001035a60:	2a00e2e4 	ld.bu       	$a0, $s0, 56(0x38)
9000000001035a64:	03800c05 	ori         	$a1, $zero, 0x3
9000000001035a68:	0380041a 	ori         	$s3, $zero, 0x1
9000000001035a6c:	1c000027 	pcaddu12i   	$a3, 1(0x1)
9000000001035a70:	02c330e7 	addi.d      	$a3, $a3, 204(0xcc)
9000000001035a74:	00159485 	xor         	$a1, $a0, $a1
9000000001035a78:	024004a5 	sltui       	$a1, $a1, 1(0x1)
9000000001035a7c:	00139484 	masknez     	$a0, $a0, $a1
9000000001035a80:	00131745 	maskeqz     	$a1, $s3, $a1
9000000001035a84:	001510a4 	or          	$a0, $a1, $a0
9000000001035a88:	0011dbc5 	sub.d       	$a1, $s7, $fp
9000000001035a8c:	03400c86 	andi        	$a2, $a0, 0x3
9000000001035a90:	03800004 	ori         	$a0, $zero, 0x0
9000000001035a94:	001500bf 	move        	$s8, $a1
9000000001035a98:	004108c6 	slli.d      	$a2, $a2, 0x2
9000000001035a9c:	38081cc6 	ldx.w       	$a2, $a2, $a3
9000000001035aa0:	00109cc6 	add.d       	$a2, $a2, $a3
9000000001035aa4:	4c0000c0 	jirl        	$zero, $a2, 0
9000000001035aa8:	0380001f 	ori         	$s8, $zero, 0x0
9000000001035aac:	001500a4 	move        	$a0, $a1
9000000001035ab0:	50011000 	b           	272(0x110)	# 9000000001035bc0 <_ZN4core3fmt9Formatter12pad_integral17habf59e458b07c8f4E+0x238>
9000000001035ab4:	001502e4 	move        	$a0, $s0
9000000001035ab8:	001503a5 	move        	$a1, $s6
9000000001035abc:	00150386 	move        	$a2, $s5
9000000001035ac0:	00150367 	move        	$a3, $s4
9000000001035ac4:	54022400 	bl          	548(0x224)	# 9000000001035ce8 <_ZN4core3fmt9Formatter12pad_integral12write_prefix17h3f6a2e35f5b00a1eE>
9000000001035ac8:	58000c80 	beq         	$a0, $zero, 12(0xc)	# 9000000001035ad4 <_ZN4core3fmt9Formatter12pad_integral17habf59e458b07c8f4E+0x14c>
9000000001035acc:	0380041a 	ori         	$s3, $zero, 0x1
9000000001035ad0:	50002000 	b           	32(0x20)	# 9000000001035af0 <_ZN4core3fmt9Formatter12pad_integral17habf59e458b07c8f4E+0x168>
9000000001035ad4:	28c0a2e5 	ld.d        	$a1, $s0, 40(0x28)
9000000001035ad8:	28c082e4 	ld.d        	$a0, $s0, 32(0x20)
9000000001035adc:	00150306 	move        	$a2, $s1
9000000001035ae0:	28c060a7 	ld.d        	$a3, $a1, 24(0x18)
9000000001035ae4:	00150325 	move        	$a1, $s2
9000000001035ae8:	4c0000e1 	jirl        	$ra, $a3, 0
9000000001035aec:	0015009a 	move        	$s3, $a0
9000000001035af0:	00150344 	move        	$a0, $s3
9000000001035af4:	28c02077 	ld.d        	$s0, $sp, 8(0x8)
9000000001035af8:	28c04078 	ld.d        	$s1, $sp, 16(0x10)
9000000001035afc:	28c06079 	ld.d        	$s2, $sp, 24(0x18)
9000000001035b00:	28c0807a 	ld.d        	$s3, $sp, 32(0x20)
9000000001035b04:	28c0a07b 	ld.d        	$s4, $sp, 40(0x28)
9000000001035b08:	28c0c07c 	ld.d        	$s5, $sp, 48(0x30)
9000000001035b0c:	28c0e07d 	ld.d        	$s6, $sp, 56(0x38)
9000000001035b10:	28c1007e 	ld.d        	$s7, $sp, 64(0x40)
9000000001035b14:	28c1207f 	ld.d        	$s8, $sp, 72(0x48)
9000000001035b18:	28c14076 	ld.d        	$fp, $sp, 80(0x50)
9000000001035b1c:	28c16061 	ld.d        	$ra, $sp, 88(0x58)
9000000001035b20:	02c18063 	addi.d      	$sp, $sp, 96(0x60)
9000000001035b24:	4c000020 	jirl        	$zero, $ra, 0
9000000001035b28:	2880d2e4 	ld.w        	$a0, $s0, 52(0x34)
9000000001035b2c:	0380041a 	ori         	$s3, $zero, 0x1
9000000001035b30:	001503a5 	move        	$a1, $s6
9000000001035b34:	00150386 	move        	$a2, $s5
9000000001035b38:	00150367 	move        	$a3, $s4
9000000001035b3c:	29801064 	st.w        	$a0, $sp, 4(0x4)
9000000001035b40:	0380c004 	ori         	$a0, $zero, 0x30
9000000001035b44:	2980d2e4 	st.w        	$a0, $s0, 52(0x34)
9000000001035b48:	0380e004 	ori         	$a0, $zero, 0x38
9000000001035b4c:	382012ff 	ldx.bu      	$s8, $s0, $a0
9000000001035b50:	001502e4 	move        	$a0, $s0
9000000001035b54:	2900e2fa 	st.b        	$s3, $s0, 56(0x38)
9000000001035b58:	54019000 	bl          	400(0x190)	# 9000000001035ce8 <_ZN4core3fmt9Formatter12pad_integral12write_prefix17h3f6a2e35f5b00a1eE>
9000000001035b5c:	5fff9480 	bne         	$a0, $zero, -108(0x3ff94)	# 9000000001035af0 <_ZN4core3fmt9Formatter12pad_integral17habf59e458b07c8f4E+0x168>
9000000001035b60:	2a00e2e4 	ld.bu       	$a0, $s0, 56(0x38)
9000000001035b64:	03800c05 	ori         	$a1, $zero, 0x3
9000000001035b68:	0380041a 	ori         	$s3, $zero, 0x1
9000000001035b6c:	1c000027 	pcaddu12i   	$a3, 1(0x1)
9000000001035b70:	02fef0e7 	addi.d      	$a3, $a3, -68(0xfbc)
9000000001035b74:	00159485 	xor         	$a1, $a0, $a1
9000000001035b78:	024004a5 	sltui       	$a1, $a1, 1(0x1)
9000000001035b7c:	00139484 	masknez     	$a0, $a0, $a1
9000000001035b80:	00131745 	maskeqz     	$a1, $s3, $a1
9000000001035b84:	001510a4 	or          	$a0, $a1, $a0
9000000001035b88:	0011dbc5 	sub.d       	$a1, $s7, $fp
9000000001035b8c:	03400c86 	andi        	$a2, $a0, 0x3
9000000001035b90:	03800004 	ori         	$a0, $zero, 0x0
9000000001035b94:	001500bc 	move        	$s5, $a1
9000000001035b98:	004108c6 	slli.d      	$a2, $a2, 0x2
9000000001035b9c:	38081cc6 	ldx.w       	$a2, $a2, $a3
9000000001035ba0:	00109cc6 	add.d       	$a2, $a2, $a3
9000000001035ba4:	4c0000c0 	jirl        	$zero, $a2, 0
9000000001035ba8:	0380001c 	ori         	$s5, $zero, 0x0
9000000001035bac:	001500a4 	move        	$a0, $a1
9000000001035bb0:	5000a800 	b           	168(0xa8)	# 9000000001035c58 <_ZN4core3fmt9Formatter12pad_integral17habf59e458b07c8f4E+0x2d0>
9000000001035bb4:	004504a4 	srli.d      	$a0, $a1, 0x1
9000000001035bb8:	02c004a5 	addi.d      	$a1, $a1, 1(0x1)
9000000001035bbc:	004504bf 	srli.d      	$s8, $a1, 0x1
9000000001035bc0:	02c0049e 	addi.d      	$s7, $a0, 1(0x1)
9000000001035bc4:	02ffffde 	addi.d      	$s7, $s7, -1(0xfff)
9000000001035bc8:	400023c0 	beqz        	$s7, 32(0x20)	# 9000000001035be8 <_ZN4core3fmt9Formatter12pad_integral17habf59e458b07c8f4E+0x260>
9000000001035bcc:	28c0a2e6 	ld.d        	$a2, $s0, 40(0x28)
9000000001035bd0:	2880d2e5 	ld.w        	$a1, $s0, 52(0x34)
9000000001035bd4:	28c082e4 	ld.d        	$a0, $s0, 32(0x20)
9000000001035bd8:	28c080c6 	ld.d        	$a2, $a2, 32(0x20)
9000000001035bdc:	4c0000c1 	jirl        	$ra, $a2, 0
9000000001035be0:	5bffe480 	beq         	$a0, $zero, -28(0x3ffe4)	# 9000000001035bc4 <_ZN4core3fmt9Formatter12pad_integral17habf59e458b07c8f4E+0x23c>
9000000001035be4:	53ff0fff 	b           	-244(0xfffff0c)	# 9000000001035af0 <_ZN4core3fmt9Formatter12pad_integral17habf59e458b07c8f4E+0x168>
9000000001035be8:	2880d2fe 	ld.w        	$s7, $s0, 52(0x34)
9000000001035bec:	001502e4 	move        	$a0, $s0
9000000001035bf0:	001503a5 	move        	$a1, $s6
9000000001035bf4:	00150386 	move        	$a2, $s5
9000000001035bf8:	00150367 	move        	$a3, $s4
9000000001035bfc:	5400ec00 	bl          	236(0xec)	# 9000000001035ce8 <_ZN4core3fmt9Formatter12pad_integral12write_prefix17h3f6a2e35f5b00a1eE>
9000000001035c00:	5ffef080 	bne         	$a0, $zero, -272(0x3fef0)	# 9000000001035af0 <_ZN4core3fmt9Formatter12pad_integral17habf59e458b07c8f4E+0x168>
9000000001035c04:	28c0a2e5 	ld.d        	$a1, $s0, 40(0x28)
9000000001035c08:	28c082e4 	ld.d        	$a0, $s0, 32(0x20)
9000000001035c0c:	00150306 	move        	$a2, $s1
9000000001035c10:	28c060a7 	ld.d        	$a3, $a1, 24(0x18)
9000000001035c14:	00150325 	move        	$a1, $s2
9000000001035c18:	4c0000e1 	jirl        	$ra, $a3, 0
9000000001035c1c:	5ffed480 	bne         	$a0, $zero, -300(0x3fed4)	# 9000000001035af0 <_ZN4core3fmt9Formatter12pad_integral17habf59e458b07c8f4E+0x168>
9000000001035c20:	02c007f9 	addi.d      	$s2, $s8, 1(0x1)
9000000001035c24:	03800018 	ori         	$s1, $zero, 0x0
9000000001035c28:	02ffff39 	addi.d      	$s2, $s2, -1(0xfff)
9000000001035c2c:	40009f20 	beqz        	$s2, 156(0x9c)	# 9000000001035cc8 <_ZN4core3fmt9Formatter12pad_integral17habf59e458b07c8f4E+0x340>
9000000001035c30:	28c0a2e5 	ld.d        	$a1, $s0, 40(0x28)
9000000001035c34:	28c082e4 	ld.d        	$a0, $s0, 32(0x20)
9000000001035c38:	28c080a6 	ld.d        	$a2, $a1, 32(0x20)
9000000001035c3c:	001503c5 	move        	$a1, $s7
9000000001035c40:	4c0000c1 	jirl        	$ra, $a2, 0
9000000001035c44:	5bffe480 	beq         	$a0, $zero, -28(0x3ffe4)	# 9000000001035c28 <_ZN4core3fmt9Formatter12pad_integral17habf59e458b07c8f4E+0x2a0>
9000000001035c48:	53feabff 	b           	-344(0xffffea8)	# 9000000001035af0 <_ZN4core3fmt9Formatter12pad_integral17habf59e458b07c8f4E+0x168>
9000000001035c4c:	004504a4 	srli.d      	$a0, $a1, 0x1
9000000001035c50:	02c004a5 	addi.d      	$a1, $a1, 1(0x1)
9000000001035c54:	004504bc 	srli.d      	$s5, $a1, 0x1
9000000001035c58:	02c0049b 	addi.d      	$s4, $a0, 1(0x1)
9000000001035c5c:	02ffff7b 	addi.d      	$s4, $s4, -1(0xfff)
9000000001035c60:	40002360 	beqz        	$s4, 32(0x20)	# 9000000001035c80 <_ZN4core3fmt9Formatter12pad_integral17habf59e458b07c8f4E+0x2f8>
9000000001035c64:	28c0a2e6 	ld.d        	$a2, $s0, 40(0x28)
9000000001035c68:	2880d2e5 	ld.w        	$a1, $s0, 52(0x34)
9000000001035c6c:	28c082e4 	ld.d        	$a0, $s0, 32(0x20)
9000000001035c70:	28c080c6 	ld.d        	$a2, $a2, 32(0x20)
9000000001035c74:	4c0000c1 	jirl        	$ra, $a2, 0
9000000001035c78:	5bffe480 	beq         	$a0, $zero, -28(0x3ffe4)	# 9000000001035c5c <_ZN4core3fmt9Formatter12pad_integral17habf59e458b07c8f4E+0x2d4>
9000000001035c7c:	53fe77ff 	b           	-396(0xffffe74)	# 9000000001035af0 <_ZN4core3fmt9Formatter12pad_integral17habf59e458b07c8f4E+0x168>
9000000001035c80:	28c0a2e5 	ld.d        	$a1, $s0, 40(0x28)
9000000001035c84:	28c082e4 	ld.d        	$a0, $s0, 32(0x20)
9000000001035c88:	2880d2fb 	ld.w        	$s4, $s0, 52(0x34)
9000000001035c8c:	00150306 	move        	$a2, $s1
9000000001035c90:	28c060a7 	ld.d        	$a3, $a1, 24(0x18)
9000000001035c94:	00150325 	move        	$a1, $s2
9000000001035c98:	4c0000e1 	jirl        	$ra, $a3, 0
9000000001035c9c:	5ffe5480 	bne         	$a0, $zero, -428(0x3fe54)	# 9000000001035af0 <_ZN4core3fmt9Formatter12pad_integral17habf59e458b07c8f4E+0x168>
9000000001035ca0:	02c00798 	addi.d      	$s1, $s5, 1(0x1)
9000000001035ca4:	02ffff18 	addi.d      	$s1, $s1, -1(0xfff)
9000000001035ca8:	40002b00 	beqz        	$s1, 40(0x28)	# 9000000001035cd0 <_ZN4core3fmt9Formatter12pad_integral17habf59e458b07c8f4E+0x348>
9000000001035cac:	28c0a2e5 	ld.d        	$a1, $s0, 40(0x28)
9000000001035cb0:	28c082e4 	ld.d        	$a0, $s0, 32(0x20)
9000000001035cb4:	28c080a6 	ld.d        	$a2, $a1, 32(0x20)
9000000001035cb8:	00150365 	move        	$a1, $s4
9000000001035cbc:	4c0000c1 	jirl        	$ra, $a2, 0
9000000001035cc0:	5bffe480 	beq         	$a0, $zero, -28(0x3ffe4)	# 9000000001035ca4 <_ZN4core3fmt9Formatter12pad_integral17habf59e458b07c8f4E+0x31c>
9000000001035cc4:	53fe2fff 	b           	-468(0xffffe2c)	# 9000000001035af0 <_ZN4core3fmt9Formatter12pad_integral17habf59e458b07c8f4E+0x168>
9000000001035cc8:	0015031a 	move        	$s3, $s1
9000000001035ccc:	53fe27ff 	b           	-476(0xffffe24)	# 9000000001035af0 <_ZN4core3fmt9Formatter12pad_integral17habf59e458b07c8f4E+0x168>
9000000001035cd0:	28801064 	ld.w        	$a0, $sp, 4(0x4)
9000000001035cd4:	2900e2ff 	st.b        	$s8, $s0, 56(0x38)
9000000001035cd8:	0380001a 	ori         	$s3, $zero, 0x0
9000000001035cdc:	2980d2e4 	st.w        	$a0, $s0, 52(0x34)
9000000001035ce0:	53fe13ff 	b           	-496(0xffffe10)	# 9000000001035af0 <_ZN4core3fmt9Formatter12pad_integral17habf59e458b07c8f4E+0x168>
9000000001035ce4:	00000000 	0x00000000

9000000001035ce8 <_ZN4core3fmt9Formatter12pad_integral12write_prefix17h3f6a2e35f5b00a1eE>:
9000000001035ce8:	02ff8063 	addi.d      	$sp, $sp, -32(0xfe0)
9000000001035cec:	29c06061 	st.d        	$ra, $sp, 24(0x18)
9000000001035cf0:	29c04079 	st.d        	$s2, $sp, 16(0x10)
9000000001035cf4:	29c02078 	st.d        	$s1, $sp, 8(0x8)
9000000001035cf8:	29c00077 	st.d        	$s0, $sp, 0
9000000001035cfc:	00150099 	move        	$s2, $a0
9000000001035d00:	001500f7 	move        	$s0, $a3
9000000001035d04:	001500d8 	move        	$s1, $a2
9000000001035d08:	14002204 	lu12i.w     	$a0, 272(0x110)
9000000001035d0c:	580020a4 	beq         	$a1, $a0, 32(0x20)	# 9000000001035d2c <_ZN4core3fmt9Formatter12pad_integral12write_prefix17h3f6a2e35f5b00a1eE+0x44>
9000000001035d10:	28c0a326 	ld.d        	$a2, $s2, 40(0x28)
9000000001035d14:	28c08324 	ld.d        	$a0, $s2, 32(0x20)
9000000001035d18:	28c080c6 	ld.d        	$a2, $a2, 32(0x20)
9000000001035d1c:	4c0000c1 	jirl        	$ra, $a2, 0
9000000001035d20:	58000c80 	beq         	$a0, $zero, 12(0xc)	# 9000000001035d2c <_ZN4core3fmt9Formatter12pad_integral12write_prefix17h3f6a2e35f5b00a1eE+0x44>
9000000001035d24:	03800404 	ori         	$a0, $zero, 0x1
9000000001035d28:	50002800 	b           	40(0x28)	# 9000000001035d50 <_ZN4core3fmt9Formatter12pad_integral12write_prefix17h3f6a2e35f5b00a1eE+0x68>
9000000001035d2c:	40002300 	beqz        	$s1, 32(0x20)	# 9000000001035d4c <_ZN4core3fmt9Formatter12pad_integral12write_prefix17h3f6a2e35f5b00a1eE+0x64>
9000000001035d30:	28c0a325 	ld.d        	$a1, $s2, 40(0x28)
9000000001035d34:	28c08324 	ld.d        	$a0, $s2, 32(0x20)
9000000001035d38:	001502e6 	move        	$a2, $s0
9000000001035d3c:	28c060a7 	ld.d        	$a3, $a1, 24(0x18)
9000000001035d40:	00150305 	move        	$a1, $s1
9000000001035d44:	4c0000e1 	jirl        	$ra, $a3, 0
9000000001035d48:	50000800 	b           	8(0x8)	# 9000000001035d50 <_ZN4core3fmt9Formatter12pad_integral12write_prefix17h3f6a2e35f5b00a1eE+0x68>
9000000001035d4c:	03800004 	ori         	$a0, $zero, 0x0
9000000001035d50:	28c00077 	ld.d        	$s0, $sp, 0
9000000001035d54:	28c02078 	ld.d        	$s1, $sp, 8(0x8)
9000000001035d58:	28c04079 	ld.d        	$s2, $sp, 16(0x10)
9000000001035d5c:	28c06061 	ld.d        	$ra, $sp, 24(0x18)
9000000001035d60:	02c08063 	addi.d      	$sp, $sp, 32(0x20)
9000000001035d64:	4c000020 	jirl        	$zero, $ra, 0

9000000001035d68 <_ZN4core3fmt9Formatter3pad17h0b8cb1dee35d2891E>:
9000000001035d68:	02ff0063 	addi.d      	$sp, $sp, -64(0xfc0)
9000000001035d6c:	29c0e061 	st.d        	$ra, $sp, 56(0x38)
9000000001035d70:	29c0c07c 	st.d        	$s5, $sp, 48(0x30)
9000000001035d74:	29c0a07b 	st.d        	$s4, $sp, 40(0x28)
9000000001035d78:	29c0807a 	st.d        	$s3, $sp, 32(0x20)
9000000001035d7c:	29c06079 	st.d        	$s2, $sp, 24(0x18)
9000000001035d80:	29c04078 	st.d        	$s1, $sp, 16(0x10)
9000000001035d84:	29c02077 	st.d        	$s0, $sp, 8(0x8)
9000000001035d88:	001500d8 	move        	$s1, $a2
9000000001035d8c:	00150097 	move        	$s0, $a0
9000000001035d90:	28c04086 	ld.d        	$a2, $a0, 16(0x10)
9000000001035d94:	28c00084 	ld.d        	$a0, $a0, 0
9000000001035d98:	001500b9 	move        	$s2, $a1
9000000001035d9c:	03800405 	ori         	$a1, $zero, 0x1
9000000001035da0:	5c000c85 	bne         	$a0, $a1, 12(0xc)	# 9000000001035dac <_ZN4core3fmt9Formatter3pad17h0b8cb1dee35d2891E+0x44>
9000000001035da4:	58000cc5 	beq         	$a2, $a1, 12(0xc)	# 9000000001035db0 <_ZN4core3fmt9Formatter3pad17h0b8cb1dee35d2891E+0x48>
9000000001035da8:	5001f400 	b           	500(0x1f4)	# 9000000001035f9c <_ZN4core3fmt9Formatter3pad17h0b8cb1dee35d2891E+0x234>
9000000001035dac:	5c0258c5 	bne         	$a2, $a1, 600(0x258)	# 9000000001036004 <_ZN4core3fmt9Formatter3pad17h0b8cb1dee35d2891E+0x29c>
9000000001035db0:	28c062e8 	ld.d        	$a4, $s0, 24(0x18)
9000000001035db4:	0010e327 	add.d       	$a3, $s2, $s1
9000000001035db8:	4000d100 	beqz        	$a4, 208(0xd0)	# 9000000001035e88 <_ZN4core3fmt9Formatter3pad17h0b8cb1dee35d2891E+0x120>
9000000001035dbc:	03800006 	ori         	$a2, $zero, 0x0
9000000001035dc0:	0380000a 	ori         	$a6, $zero, 0x0
9000000001035dc4:	0383800b 	ori         	$a7, $zero, 0xe0
9000000001035dc8:	0383c00c 	ori         	$t0, $zero, 0xf0
9000000001035dcc:	1400380d 	lu12i.w     	$t1, 448(0x1c0)
9000000001035dd0:	1400220e 	lu12i.w     	$t2, 272(0x110)
9000000001035dd4:	00150329 	move        	$a5, $s2
9000000001035dd8:	50003400 	b           	52(0x34)	# 9000000001035e0c <_ZN4core3fmt9Formatter3pad17h0b8cb1dee35d2891E+0xa4>
9000000001035ddc:	0040ca10 	slli.w      	$t4, $t4, 0x12
9000000001035de0:	0040b231 	slli.w      	$t5, $t5, 0xc
9000000001035de4:	0014b610 	and         	$t4, $t4, $t1
9000000001035de8:	00154230 	or          	$t4, $t5, $t4
9000000001035dec:	00409a51 	slli.w      	$t5, $t6, 0x6
9000000001035df0:	00154610 	or          	$t4, $t4, $t5
9000000001035df4:	00154e10 	or          	$t4, $t4, $t7
9000000001035df8:	5801a20e 	beq         	$t4, $t2, 416(0x1a0)	# 9000000001035f98 <_ZN4core3fmt9Formatter3pad17h0b8cb1dee35d2891E+0x230>
9000000001035dfc:	0011bd2f 	sub.d       	$t3, $a5, $t3
9000000001035e00:	02fffd08 	addi.d      	$a4, $a4, -1(0xfff)
9000000001035e04:	001099e6 	add.d       	$a2, $t3, $a2
9000000001035e08:	40008900 	beqz        	$a4, 136(0x88)	# 9000000001035e90 <_ZN4core3fmt9Formatter3pad17h0b8cb1dee35d2891E+0x128>
9000000001035e0c:	58018ce9 	beq         	$a3, $a5, 396(0x18c)	# 9000000001035f98 <_ZN4core3fmt9Formatter3pad17h0b8cb1dee35d2891E+0x230>
9000000001035e10:	0015012f 	move        	$t3, $a5
9000000001035e14:	02c00529 	addi.d      	$a5, $a5, 1(0x1)
9000000001035e18:	280001f0 	ld.b        	$t4, $t3, 0
9000000001035e1c:	02000211 	slti        	$t5, $t4, 0
9000000001035e20:	5bffde20 	beq         	$t5, $zero, -36(0x3ffdc)	# 9000000001035dfc <_ZN4core3fmt9Formatter3pad17h0b8cb1dee35d2891E+0x94>
9000000001035e24:	0343fe10 	andi        	$t4, $t4, 0xff
9000000001035e28:	58001d27 	beq         	$a5, $a3, 28(0x1c)	# 9000000001035e44 <_ZN4core3fmt9Formatter3pad17h0b8cb1dee35d2891E+0xdc>
9000000001035e2c:	2a0005f1 	ld.bu       	$t5, $t3, 1(0x1)
9000000001035e30:	02c009e9 	addi.d      	$a5, $t3, 2(0x2)
9000000001035e34:	00150133 	move        	$t7, $a5
9000000001035e38:	0340fe31 	andi        	$t5, $t5, 0x3f
9000000001035e3c:	6bffc20b 	bltu        	$t4, $a7, -64(0x3ffc0)	# 9000000001035dfc <_ZN4core3fmt9Formatter3pad17h0b8cb1dee35d2891E+0x94>
9000000001035e40:	50001000 	b           	16(0x10)	# 9000000001035e50 <_ZN4core3fmt9Formatter3pad17h0b8cb1dee35d2891E+0xe8>
9000000001035e44:	001500f3 	move        	$t7, $a3
9000000001035e48:	00150151 	move        	$t5, $a6
9000000001035e4c:	6bffb20b 	bltu        	$t4, $a7, -80(0x3ffb0)	# 9000000001035dfc <_ZN4core3fmt9Formatter3pad17h0b8cb1dee35d2891E+0x94>
9000000001035e50:	001500f4 	move        	$t8, $a3
9000000001035e54:	00150152 	move        	$t6, $a6
9000000001035e58:	58001667 	beq         	$t7, $a3, 20(0x14)	# 9000000001035e6c <_ZN4core3fmt9Formatter3pad17h0b8cb1dee35d2891E+0x104>
9000000001035e5c:	2a000272 	ld.bu       	$t6, $t7, 0
9000000001035e60:	02c00669 	addi.d      	$a5, $t7, 1(0x1)
9000000001035e64:	00150134 	move        	$t8, $a5
9000000001035e68:	0340fe52 	andi        	$t6, $t6, 0x3f
9000000001035e6c:	6bff920c 	bltu        	$t4, $t0, -112(0x3ff90)	# 9000000001035dfc <_ZN4core3fmt9Formatter3pad17h0b8cb1dee35d2891E+0x94>
9000000001035e70:	00150153 	move        	$t7, $a6
9000000001035e74:	5bff6a87 	beq         	$t8, $a3, -152(0x3ff68)	# 9000000001035ddc <_ZN4core3fmt9Formatter3pad17h0b8cb1dee35d2891E+0x74>
9000000001035e78:	2a000293 	ld.bu       	$t7, $t8, 0
9000000001035e7c:	02c00689 	addi.d      	$a5, $t8, 1(0x1)
9000000001035e80:	0340fe73 	andi        	$t7, $t7, 0x3f
9000000001035e84:	53ff5bff 	b           	-168(0xfffff58)	# 9000000001035ddc <_ZN4core3fmt9Formatter3pad17h0b8cb1dee35d2891E+0x74>
9000000001035e88:	03800006 	ori         	$a2, $zero, 0x0
9000000001035e8c:	00150329 	move        	$a5, $s2
9000000001035e90:	580108e9 	beq         	$a3, $a5, 264(0x108)	# 9000000001035f98 <_ZN4core3fmt9Formatter3pad17h0b8cb1dee35d2891E+0x230>
9000000001035e94:	28000128 	ld.b        	$a4, $a5, 0
9000000001035e98:	0200010a 	slti        	$a6, $a4, 0
9000000001035e9c:	5800a140 	beq         	$a6, $zero, 160(0xa0)	# 9000000001035f3c <_ZN4core3fmt9Formatter3pad17h0b8cb1dee35d2891E+0x1d4>
9000000001035ea0:	02c0052a 	addi.d      	$a6, $a5, 1(0x1)
9000000001035ea4:	0343fd08 	andi        	$a4, $a4, 0xff
9000000001035ea8:	58002147 	beq         	$a6, $a3, 32(0x20)	# 9000000001035ec8 <_ZN4core3fmt9Formatter3pad17h0b8cb1dee35d2891E+0x160>
9000000001035eac:	02c0092a 	addi.d      	$a6, $a5, 2(0x2)
9000000001035eb0:	2a000529 	ld.bu       	$a5, $a5, 1(0x1)
9000000001035eb4:	0340fd29 	andi        	$a5, $a5, 0x3f
9000000001035eb8:	00409929 	slli.w      	$a5, $a5, 0x6
9000000001035ebc:	0383800b 	ori         	$a7, $zero, 0xe0
9000000001035ec0:	6c00190b 	bgeu        	$a4, $a7, 24(0x18)	# 9000000001035ed8 <_ZN4core3fmt9Formatter3pad17h0b8cb1dee35d2891E+0x170>
9000000001035ec4:	50007800 	b           	120(0x78)	# 9000000001035f3c <_ZN4core3fmt9Formatter3pad17h0b8cb1dee35d2891E+0x1d4>
9000000001035ec8:	03800009 	ori         	$a5, $zero, 0x0
9000000001035ecc:	001500ea 	move        	$a6, $a3
9000000001035ed0:	0383800b 	ori         	$a7, $zero, 0xe0
9000000001035ed4:	6800690b 	bltu        	$a4, $a7, 104(0x68)	# 9000000001035f3c <_ZN4core3fmt9Formatter3pad17h0b8cb1dee35d2891E+0x1d4>
9000000001035ed8:	58001d47 	beq         	$a6, $a3, 28(0x1c)	# 9000000001035ef4 <_ZN4core3fmt9Formatter3pad17h0b8cb1dee35d2891E+0x18c>
9000000001035edc:	02c0054b 	addi.d      	$a7, $a6, 1(0x1)
9000000001035ee0:	2a00014a 	ld.bu       	$a6, $a6, 0
9000000001035ee4:	0340fd4a 	andi        	$a6, $a6, 0x3f
9000000001035ee8:	0383c00c 	ori         	$t0, $zero, 0xf0
9000000001035eec:	6c00190c 	bgeu        	$a4, $t0, 24(0x18)	# 9000000001035f04 <_ZN4core3fmt9Formatter3pad17h0b8cb1dee35d2891E+0x19c>
9000000001035ef0:	50004c00 	b           	76(0x4c)	# 9000000001035f3c <_ZN4core3fmt9Formatter3pad17h0b8cb1dee35d2891E+0x1d4>
9000000001035ef4:	0380000a 	ori         	$a6, $zero, 0x0
9000000001035ef8:	001500eb 	move        	$a7, $a3
9000000001035efc:	0383c00c 	ori         	$t0, $zero, 0xf0
9000000001035f00:	68003d0c 	bltu        	$a4, $t0, 60(0x3c)	# 9000000001035f3c <_ZN4core3fmt9Formatter3pad17h0b8cb1dee35d2891E+0x1d4>
9000000001035f04:	00152549 	or          	$a5, $a6, $a5
9000000001035f08:	58001167 	beq         	$a7, $a3, 16(0x10)	# 9000000001035f18 <_ZN4core3fmt9Formatter3pad17h0b8cb1dee35d2891E+0x1b0>
9000000001035f0c:	2a000167 	ld.bu       	$a3, $a7, 0
9000000001035f10:	0340fce7 	andi        	$a3, $a3, 0x3f
9000000001035f14:	50000800 	b           	8(0x8)	# 9000000001035f1c <_ZN4core3fmt9Formatter3pad17h0b8cb1dee35d2891E+0x1b4>
9000000001035f18:	03800007 	ori         	$a3, $zero, 0x0
9000000001035f1c:	0040c908 	slli.w      	$a4, $a4, 0x12
9000000001035f20:	1400380a 	lu12i.w     	$a6, 448(0x1c0)
9000000001035f24:	00409929 	slli.w      	$a5, $a5, 0x6
9000000001035f28:	0014a908 	and         	$a4, $a4, $a6
9000000001035f2c:	00152128 	or          	$a4, $a5, $a4
9000000001035f30:	00151d07 	or          	$a3, $a4, $a3
9000000001035f34:	14002208 	lu12i.w     	$a4, 272(0x110)
9000000001035f38:	580060e8 	beq         	$a3, $a4, 96(0x60)	# 9000000001035f98 <_ZN4core3fmt9Formatter3pad17h0b8cb1dee35d2891E+0x230>
9000000001035f3c:	40001cc0 	beqz        	$a2, 28(0x1c)	# 9000000001035f58 <_ZN4core3fmt9Formatter3pad17h0b8cb1dee35d2891E+0x1f0>
9000000001035f40:	6c0020d8 	bgeu        	$a2, $s1, 32(0x20)	# 9000000001035f60 <_ZN4core3fmt9Formatter3pad17h0b8cb1dee35d2891E+0x1f8>
9000000001035f44:	38001b27 	ldx.b       	$a3, $s2, $a2
9000000001035f48:	02bf0008 	addi.w      	$a4, $zero, -64(0xfc0)
9000000001035f4c:	600024e8 	blt         	$a3, $a4, 36(0x24)	# 9000000001035f70 <_ZN4core3fmt9Formatter3pad17h0b8cb1dee35d2891E+0x208>
9000000001035f50:	001500c7 	move        	$a3, $a2
9000000001035f54:	50001400 	b           	20(0x14)	# 9000000001035f68 <_ZN4core3fmt9Formatter3pad17h0b8cb1dee35d2891E+0x200>
9000000001035f58:	03800007 	ori         	$a3, $zero, 0x0
9000000001035f5c:	50000c00 	b           	12(0xc)	# 9000000001035f68 <_ZN4core3fmt9Formatter3pad17h0b8cb1dee35d2891E+0x200>
9000000001035f60:	00150307 	move        	$a3, $s1
9000000001035f64:	5c000cd8 	bne         	$a2, $s1, 12(0xc)	# 9000000001035f70 <_ZN4core3fmt9Formatter3pad17h0b8cb1dee35d2891E+0x208>
9000000001035f68:	00150328 	move        	$a4, $s2
9000000001035f6c:	50000c00 	b           	12(0xc)	# 9000000001035f78 <_ZN4core3fmt9Formatter3pad17h0b8cb1dee35d2891E+0x210>
9000000001035f70:	03800008 	ori         	$a4, $zero, 0x0
9000000001035f74:	001500c7 	move        	$a3, $a2
9000000001035f78:	02400506 	sltui       	$a2, $a4, 1(0x1)
9000000001035f7c:	004080c6 	slli.w      	$a2, $a2, 0x0
9000000001035f80:	001398e7 	masknez     	$a3, $a3, $a2
9000000001035f84:	00131b09 	maskeqz     	$a5, $s1, $a2
9000000001035f88:	00151d38 	or          	$s1, $a5, $a3
9000000001035f8c:	00139907 	masknez     	$a3, $a4, $a2
9000000001035f90:	00131b26 	maskeqz     	$a2, $s2, $a2
9000000001035f94:	00151cd9 	or          	$s2, $a2, $a3
9000000001035f98:	5c006c85 	bne         	$a0, $a1, 108(0x6c)	# 9000000001036004 <_ZN4core3fmt9Formatter3pad17h0b8cb1dee35d2891E+0x29c>
9000000001035f9c:	28c022fb 	ld.d        	$s4, $s0, 8(0x8)
9000000001035fa0:	0380001a 	ori         	$s3, $zero, 0x0
9000000001035fa4:	0010e325 	add.d       	$a1, $s2, $s1
9000000001035fa8:	00150324 	move        	$a0, $s2
9000000001035fac:	00150346 	move        	$a2, $s3
9000000001035fb0:	54054800 	bl          	1352(0x548)	# 90000000010364f8 <_ZN102_$LT$core..iter..adapters..map..Map$LT$I$C$F$GT$$u20$as$u20$core..iter..traits..iterator..Iterator$GT$4fold17h9daeac1da71383a4E>
9000000001035fb4:	0012ec85 	sltu        	$a1, $a0, $s4
9000000001035fb8:	03c004a5 	xori        	$a1, $a1, 0x1
9000000001035fbc:	5c0048a0 	bne         	$a1, $zero, 72(0x48)	# 9000000001036004 <_ZN4core3fmt9Formatter3pad17h0b8cb1dee35d2891E+0x29c>
9000000001035fc0:	2a00e2e5 	ld.bu       	$a1, $s0, 56(0x38)
9000000001035fc4:	03800c06 	ori         	$a2, $zero, 0x3
9000000001035fc8:	00119364 	sub.d       	$a0, $s4, $a0
9000000001035fcc:	0015009c 	move        	$s5, $a0
9000000001035fd0:	001598a6 	xor         	$a2, $a1, $a2
9000000001035fd4:	024004c6 	sltui       	$a2, $a2, 1(0x1)
9000000001035fd8:	001398a5 	masknez     	$a1, $a1, $a2
9000000001035fdc:	1c000026 	pcaddu12i   	$a2, 1(0x1)
9000000001035fe0:	02edb0c6 	addi.d      	$a2, $a2, -1172(0xb6c)
9000000001035fe4:	03400ca5 	andi        	$a1, $a1, 0x3
9000000001035fe8:	004108a5 	slli.d      	$a1, $a1, 0x2
9000000001035fec:	380818a5 	ldx.w       	$a1, $a1, $a2
9000000001035ff0:	001098a5 	add.d       	$a1, $a1, $a2
9000000001035ff4:	4c0000a0 	jirl        	$zero, $a1, 0
9000000001035ff8:	0380001c 	ori         	$s5, $zero, 0x0
9000000001035ffc:	0015009a 	move        	$s3, $a0
9000000001036000:	50005400 	b           	84(0x54)	# 9000000001036054 <_ZN4core3fmt9Formatter3pad17h0b8cb1dee35d2891E+0x2ec>
9000000001036004:	28c0a2e5 	ld.d        	$a1, $s0, 40(0x28)
9000000001036008:	28c082e4 	ld.d        	$a0, $s0, 32(0x20)
900000000103600c:	00150306 	move        	$a2, $s1
9000000001036010:	28c060a7 	ld.d        	$a3, $a1, 24(0x18)
9000000001036014:	00150325 	move        	$a1, $s2
9000000001036018:	4c0000e1 	jirl        	$ra, $a3, 0
900000000103601c:	0015009a 	move        	$s3, $a0
9000000001036020:	00150344 	move        	$a0, $s3
9000000001036024:	28c02077 	ld.d        	$s0, $sp, 8(0x8)
9000000001036028:	28c04078 	ld.d        	$s1, $sp, 16(0x10)
900000000103602c:	28c06079 	ld.d        	$s2, $sp, 24(0x18)
9000000001036030:	28c0807a 	ld.d        	$s3, $sp, 32(0x20)
9000000001036034:	28c0a07b 	ld.d        	$s4, $sp, 40(0x28)
9000000001036038:	28c0c07c 	ld.d        	$s5, $sp, 48(0x30)
900000000103603c:	28c0e061 	ld.d        	$ra, $sp, 56(0x38)
9000000001036040:	02c10063 	addi.d      	$sp, $sp, 64(0x40)
9000000001036044:	4c000020 	jirl        	$zero, $ra, 0
9000000001036048:	0045049a 	srli.d      	$s3, $a0, 0x1
900000000103604c:	02c00484 	addi.d      	$a0, $a0, 1(0x1)
9000000001036050:	0045049c 	srli.d      	$s5, $a0, 0x1
9000000001036054:	02c0075b 	addi.d      	$s4, $s3, 1(0x1)
9000000001036058:	0380041a 	ori         	$s3, $zero, 0x1
900000000103605c:	02ffff7b 	addi.d      	$s4, $s4, -1(0xfff)
9000000001036060:	40002360 	beqz        	$s4, 32(0x20)	# 9000000001036080 <_ZN4core3fmt9Formatter3pad17h0b8cb1dee35d2891E+0x318>
9000000001036064:	28c0a2e6 	ld.d        	$a2, $s0, 40(0x28)
9000000001036068:	2880d2e5 	ld.w        	$a1, $s0, 52(0x34)
900000000103606c:	28c082e4 	ld.d        	$a0, $s0, 32(0x20)
9000000001036070:	28c080c6 	ld.d        	$a2, $a2, 32(0x20)
9000000001036074:	4c0000c1 	jirl        	$ra, $a2, 0
9000000001036078:	5bffe480 	beq         	$a0, $zero, -28(0x3ffe4)	# 900000000103605c <_ZN4core3fmt9Formatter3pad17h0b8cb1dee35d2891E+0x2f4>
900000000103607c:	53ffa7ff 	b           	-92(0xfffffa4)	# 9000000001036020 <_ZN4core3fmt9Formatter3pad17h0b8cb1dee35d2891E+0x2b8>
9000000001036080:	28c0a2e5 	ld.d        	$a1, $s0, 40(0x28)
9000000001036084:	28c082e4 	ld.d        	$a0, $s0, 32(0x20)
9000000001036088:	2880d2fb 	ld.w        	$s4, $s0, 52(0x34)
900000000103608c:	00150306 	move        	$a2, $s1
9000000001036090:	28c060a7 	ld.d        	$a3, $a1, 24(0x18)
9000000001036094:	00150325 	move        	$a1, $s2
9000000001036098:	4c0000e1 	jirl        	$ra, $a3, 0
900000000103609c:	5fff8480 	bne         	$a0, $zero, -124(0x3ff84)	# 9000000001036020 <_ZN4core3fmt9Formatter3pad17h0b8cb1dee35d2891E+0x2b8>
90000000010360a0:	02c00799 	addi.d      	$s2, $s5, 1(0x1)
90000000010360a4:	03800018 	ori         	$s1, $zero, 0x0
90000000010360a8:	02ffff39 	addi.d      	$s2, $s2, -1(0xfff)
90000000010360ac:	40002320 	beqz        	$s2, 32(0x20)	# 90000000010360cc <_ZN4core3fmt9Formatter3pad17h0b8cb1dee35d2891E+0x364>
90000000010360b0:	28c0a2e5 	ld.d        	$a1, $s0, 40(0x28)
90000000010360b4:	28c082e4 	ld.d        	$a0, $s0, 32(0x20)
90000000010360b8:	28c080a6 	ld.d        	$a2, $a1, 32(0x20)
90000000010360bc:	00150365 	move        	$a1, $s4
90000000010360c0:	4c0000c1 	jirl        	$ra, $a2, 0
90000000010360c4:	5bffe480 	beq         	$a0, $zero, -28(0x3ffe4)	# 90000000010360a8 <_ZN4core3fmt9Formatter3pad17h0b8cb1dee35d2891E+0x340>
90000000010360c8:	53ff5bff 	b           	-168(0xfffff58)	# 9000000001036020 <_ZN4core3fmt9Formatter3pad17h0b8cb1dee35d2891E+0x2b8>
90000000010360cc:	0015031a 	move        	$s3, $s1
90000000010360d0:	53ff53ff 	b           	-176(0xfffff50)	# 9000000001036020 <_ZN4core3fmt9Formatter3pad17h0b8cb1dee35d2891E+0x2b8>
90000000010360d4:	00000000 	0x00000000

90000000010360d8 <_ZN42_$LT$str$u20$as$u20$core..fmt..Display$GT$3fmt17h27225c16acf76297E>:
90000000010360d8:	001500a7 	move        	$a3, $a1
90000000010360dc:	00150085 	move        	$a1, $a0
90000000010360e0:	001500c4 	move        	$a0, $a2
90000000010360e4:	001500e6 	move        	$a2, $a3
90000000010360e8:	53fc83ff 	b           	-896(0xffffc80)	# 9000000001035d68 <_ZN4core3fmt9Formatter3pad17h0b8cb1dee35d2891E>
90000000010360ec:	00000000 	0x00000000

90000000010360f0 <_ZN53_$LT$core..fmt..Error$u20$as$u20$core..fmt..Debug$GT$3fmt17h473e0c6e9e14cfcfE>:
90000000010360f0:	28c080a4 	ld.d        	$a0, $a1, 32(0x20)
90000000010360f4:	28c0a0a5 	ld.d        	$a1, $a1, 40(0x28)
90000000010360f8:	03801406 	ori         	$a2, $zero, 0x5
90000000010360fc:	28c060a7 	ld.d        	$a3, $a1, 24(0x18)
9000000001036100:	1c000025 	pcaddu12i   	$a1, 1(0x1)
9000000001036104:	02e960a5 	addi.d      	$a1, $a1, -1448(0xa58)
9000000001036108:	4c0000e0 	jirl        	$zero, $a3, 0
900000000103610c:	00000000 	0x00000000

9000000001036110 <_ZN4core5slice5index26slice_start_index_len_fail17h126875fde9d4000dE>:
9000000001036110:	02fe4063 	addi.d      	$sp, $sp, -112(0xf90)
9000000001036114:	29c1a061 	st.d        	$ra, $sp, 104(0x68)
9000000001036118:	29c04065 	st.d        	$a1, $sp, 16(0x10)
900000000103611c:	29c02064 	st.d        	$a0, $sp, 8(0x8)
9000000001036120:	1c000044 	pcaddu12i   	$a0, 2(0x2)
9000000001036124:	02c94084 	addi.d      	$a0, $a0, 592(0x250)
9000000001036128:	03800808 	ori         	$a4, $zero, 0x2
900000000103612c:	03800005 	ori         	$a1, $zero, 0x0
9000000001036130:	02c12067 	addi.d      	$a3, $sp, 72(0x48)
9000000001036134:	29c10068 	st.d        	$a4, $sp, 64(0x40)
9000000001036138:	29c0e067 	st.d        	$a3, $sp, 56(0x38)
900000000103613c:	29c0a065 	st.d        	$a1, $sp, 40(0x28)
9000000001036140:	29c08068 	st.d        	$a4, $sp, 32(0x20)
9000000001036144:	29c06064 	st.d        	$a0, $sp, 24(0x18)
9000000001036148:	1c000044 	pcaddu12i   	$a0, 2(0x2)
900000000103614c:	28cfc084 	ld.d        	$a0, $a0, 1008(0x3f0)
9000000001036150:	02c04065 	addi.d      	$a1, $sp, 16(0x10)
9000000001036154:	29c18064 	st.d        	$a0, $sp, 96(0x60)
9000000001036158:	29c16065 	st.d        	$a1, $sp, 88(0x58)
900000000103615c:	29c14064 	st.d        	$a0, $sp, 80(0x50)
9000000001036160:	02c02064 	addi.d      	$a0, $sp, 8(0x8)
9000000001036164:	001500c5 	move        	$a1, $a2
9000000001036168:	29c12064 	st.d        	$a0, $sp, 72(0x48)
900000000103616c:	02c06064 	addi.d      	$a0, $sp, 24(0x18)
9000000001036170:	57f503ff 	bl          	-2816(0xffff500)	# 9000000001035670 <_ZN4core9panicking9panic_fmt17h7deed37ee899fd65E>
9000000001036174:	002a0000 	break       	0x0

9000000001036178 <_ZN4core3fmt3num3imp7fmt_u6417h1e59b8223145771dE.llvm.4803403633740665608>:
9000000001036178:	02ff0063 	addi.d      	$sp, $sp, -64(0xfc0)
900000000103617c:	29c0e061 	st.d        	$ra, $sp, 56(0x38)
9000000001036180:	29c0c078 	st.d        	$s1, $sp, 48(0x30)
9000000001036184:	29c0a077 	st.d        	$s0, $sp, 40(0x28)
9000000001036188:	001500ca 	move        	$a6, $a2
900000000103618c:	14000046 	lu12i.w     	$a2, 2(0x2)
9000000001036190:	140001e7 	lu12i.w     	$a3, 15(0xf)
9000000001036194:	14a3d708 	lu12i.w     	$a4, 335544(0x51eb8)
9000000001036198:	039c40c9 	ori         	$a5, $a2, 0x710
900000000103619c:	02c00066 	addi.d      	$a2, $sp, 0
90000000010361a0:	6800dc89 	bltu        	$a0, $a5, 220(0xdc)	# 900000000103627c <_ZN4core3fmt3num3imp7fmt_u6417h1e59b8223145771dE.llvm.4803403633740665608+0x104>
90000000010361a4:	14710ca9 	lu12i.w     	$a5, 231525(0x38865)
90000000010361a8:	140bebcb 	lu12i.w     	$a7, 24414(0x5f5e)
90000000010361ac:	03800010 	ori         	$t4, $zero, 0x0
90000000010361b0:	03947d0c 	ori         	$t0, $a4, 0x51f
90000000010361b4:	03bff8ed 	ori         	$t1, $a3, 0xffe
90000000010361b8:	03a52d29 	ori         	$a5, $a5, 0x94b
90000000010361bc:	0383fd6b 	ori         	$a7, $a7, 0xff
90000000010361c0:	0015012e 	move        	$t2, $a5
90000000010361c4:	00129178 	sltu        	$s1, $a7, $a0
90000000010361c8:	02fff20f 	addi.d      	$t3, $t4, -4(0xffc)
90000000010361cc:	0010c0d0 	add.d       	$t4, $a2, $t4
90000000010361d0:	17b8bace 	lu32i.d     	$t2, -145962(0xdc5d6)
90000000010361d4:	030d19ce 	lu52i.d     	$t2, $t2, 838(0x346)
90000000010361d8:	1c000037 	pcaddu12i   	$s0, 1(0x1)
90000000010361dc:	02e6eef7 	addi.d      	$s0, $s0, -1605(0x9bb)
90000000010361e0:	001eb88e 	mulh.du     	$t2, $a0, $t2
90000000010361e4:	00452dce 	srli.d      	$t2, $t2, 0xb
90000000010361e8:	004121d3 	slli.d      	$t7, $t2, 0x8
90000000010361ec:	004111d4 	slli.d      	$t8, $t2, 0x4
90000000010361f0:	00412dd2 	slli.d      	$t6, $t2, 0xb
90000000010361f4:	004135d1 	slli.d      	$t5, $t2, 0xd
90000000010361f8:	0011ce93 	sub.d       	$t7, $t8, $t7
90000000010361fc:	0010ce52 	add.d       	$t6, $t6, $t7
9000000001036200:	0010ca31 	add.d       	$t5, $t5, $t6
9000000001036204:	0011c484 	sub.d       	$a0, $a0, $t5
9000000001036208:	00408084 	slli.w      	$a0, $a0, 0x0
900000000103620c:	006f8091 	bstrpick.w  	$t5, $a0, 0xf, 0x0
9000000001036210:	00df0231 	bstrpick.d  	$t5, $t5, 0x1f, 0x0
9000000001036214:	001db231 	mul.d       	$t5, $t5, $t0
9000000001036218:	00459631 	srli.d      	$t5, $t5, 0x25
900000000103621c:	00408231 	slli.w      	$t5, $t5, 0x0
9000000001036220:	00408a32 	slli.w      	$t6, $t5, 0x2
9000000001036224:	00409633 	slli.w      	$t7, $t5, 0x5
9000000001036228:	00114a72 	sub.w       	$t6, $t7, $t6
900000000103622c:	00409e33 	slli.w      	$t7, $t5, 0x7
9000000001036230:	00408631 	slli.w      	$t5, $t5, 0x1
9000000001036234:	00df0231 	bstrpick.d  	$t5, $t5, 0x1f, 0x0
9000000001036238:	382446f1 	ldx.hu      	$t5, $s0, $t5
900000000103623c:	29408e11 	st.h        	$t5, $t4, 35(0x23)
9000000001036240:	00114e51 	sub.w       	$t5, $t6, $t7
9000000001036244:	00104484 	add.w       	$a0, $a0, $t5
9000000001036248:	00408484 	slli.w      	$a0, $a0, 0x1
900000000103624c:	0014b484 	and         	$a0, $a0, $t1
9000000001036250:	382412e4 	ldx.hu      	$a0, $s0, $a0
9000000001036254:	29409604 	st.h        	$a0, $t4, 37(0x25)
9000000001036258:	001501f0 	move        	$t4, $t3
900000000103625c:	001501c4 	move        	$a0, $t2
9000000001036260:	5fff6300 	bne         	$s1, $zero, -160(0x3ff60)	# 90000000010361c0 <_ZN4core3fmt3num3imp7fmt_u6417h1e59b8223145771dE.llvm.4803403633740665608+0x48>
9000000001036264:	02c09de9 	addi.d      	$a5, $t3, 39(0x27)
9000000001036268:	001501c4 	move        	$a0, $t2
900000000103626c:	03818c0b 	ori         	$a7, $zero, 0x63
9000000001036270:	0012116b 	slt         	$a7, $a7, $a0
9000000001036274:	5c001960 	bne         	$a7, $zero, 24(0x18)	# 900000000103628c <_ZN4core3fmt3num3imp7fmt_u6417h1e59b8223145771dE.llvm.4803403633740665608+0x114>
9000000001036278:	50006800 	b           	104(0x68)	# 90000000010362e0 <_ZN4core3fmt3num3imp7fmt_u6417h1e59b8223145771dE.llvm.4803403633740665608+0x168>
900000000103627c:	03809c09 	ori         	$a5, $zero, 0x27
9000000001036280:	03818c0b 	ori         	$a7, $zero, 0x63
9000000001036284:	0012116b 	slt         	$a7, $a7, $a0
9000000001036288:	58005960 	beq         	$a7, $zero, 88(0x58)	# 90000000010362e0 <_ZN4core3fmt3num3imp7fmt_u6417h1e59b8223145771dE.llvm.4803403633740665608+0x168>
900000000103628c:	0040808b 	slli.w      	$a7, $a0, 0x0
9000000001036290:	03947d08 	ori         	$a4, $a4, 0x51f
9000000001036294:	03bff8e7 	ori         	$a3, $a3, 0xffe
9000000001036298:	02fff929 	addi.d      	$a5, $a5, -2(0xffe)
900000000103629c:	006f8164 	bstrpick.w  	$a0, $a7, 0xf, 0x0
90000000010362a0:	00df0084 	bstrpick.d  	$a0, $a0, 0x1f, 0x0
90000000010362a4:	001da084 	mul.d       	$a0, $a0, $a4
90000000010362a8:	1c000028 	pcaddu12i   	$a4, 1(0x1)
90000000010362ac:	02e3ad08 	addi.d      	$a4, $a4, -1813(0x8eb)
90000000010362b0:	00459484 	srli.d      	$a0, $a0, 0x25
90000000010362b4:	0040808c 	slli.w      	$t0, $a0, 0x0
90000000010362b8:	0040898d 	slli.w      	$t1, $t0, 0x2
90000000010362bc:	0040958e 	slli.w      	$t2, $t0, 0x5
90000000010362c0:	00409d8c 	slli.w      	$t0, $t0, 0x7
90000000010362c4:	001135cd 	sub.w       	$t1, $t2, $t1
90000000010362c8:	001131ac 	sub.w       	$t0, $t1, $t0
90000000010362cc:	0010316b 	add.w       	$a7, $a7, $t0
90000000010362d0:	0040856b 	slli.w      	$a7, $a7, 0x1
90000000010362d4:	00149d67 	and         	$a3, $a7, $a3
90000000010362d8:	38241d07 	ldx.hu      	$a3, $a4, $a3
90000000010362dc:	381424c7 	stx.h       	$a3, $a2, $a5
90000000010362e0:	03802807 	ori         	$a3, $zero, 0xa
90000000010362e4:	64001887 	bge         	$a0, $a3, 24(0x18)	# 90000000010362fc <_ZN4core3fmt3num3imp7fmt_u6417h1e59b8223145771dE.llvm.4803403633740665608+0x184>
90000000010362e8:	00408084 	slli.w      	$a0, $a0, 0x0
90000000010362ec:	02fffd27 	addi.d      	$a3, $a5, -1(0xfff)
90000000010362f0:	0280c084 	addi.w      	$a0, $a0, 48(0x30)
90000000010362f4:	38101cc4 	stx.b       	$a0, $a2, $a3
90000000010362f8:	50001c00 	b           	28(0x1c)	# 9000000001036314 <_ZN4core3fmt3num3imp7fmt_u6417h1e59b8223145771dE.llvm.4803403633740665608+0x19c>
90000000010362fc:	00410484 	slli.d      	$a0, $a0, 0x1
9000000001036300:	1c000027 	pcaddu12i   	$a3, 1(0x1)
9000000001036304:	02e24ce7 	addi.d      	$a3, $a3, -1901(0x893)
9000000001036308:	382410e4 	ldx.hu      	$a0, $a3, $a0
900000000103630c:	02fff927 	addi.d      	$a3, $a5, -2(0xffe)
9000000001036310:	38141cc4 	stx.h       	$a0, $a2, $a3
9000000001036314:	03809c04 	ori         	$a0, $zero, 0x27
9000000001036318:	00109cc8 	add.d       	$a4, $a2, $a3
900000000103631c:	00df00a5 	bstrpick.d  	$a1, $a1, 0x1f, 0x0
9000000001036320:	1c000026 	pcaddu12i   	$a2, 1(0x1)
9000000001036324:	02e1c4c6 	addi.d      	$a2, $a2, -1935(0x871)
9000000001036328:	00119c89 	sub.d       	$a5, $a0, $a3
900000000103632c:	03800007 	ori         	$a3, $zero, 0x0
9000000001036330:	00150144 	move        	$a0, $a6
9000000001036334:	57f657ff 	bl          	-2476(0xffff654)	# 9000000001035988 <_ZN4core3fmt9Formatter12pad_integral17habf59e458b07c8f4E>
9000000001036338:	28c0a077 	ld.d        	$s0, $sp, 40(0x28)
900000000103633c:	28c0c078 	ld.d        	$s1, $sp, 48(0x30)
9000000001036340:	28c0e061 	ld.d        	$ra, $sp, 56(0x38)
9000000001036344:	02c10063 	addi.d      	$sp, $sp, 64(0x40)
9000000001036348:	4c000020 	jirl        	$zero, $ra, 0
900000000103634c:	00000000 	0x00000000

9000000001036350 <_ZN4core3fmt3num3imp51_$LT$impl$u20$core..fmt..Display$u20$for$u20$u8$GT$3fmt17h83182ba217bd0a9cE>:
9000000001036350:	2a000084 	ld.bu       	$a0, $a0, 0
9000000001036354:	001500a6 	move        	$a2, $a1
9000000001036358:	03800405 	ori         	$a1, $zero, 0x1
900000000103635c:	53fe1fff 	b           	-484(0xffffe1c)	# 9000000001036178 <_ZN4core3fmt3num3imp7fmt_u6417h1e59b8223145771dE.llvm.4803403633740665608>

9000000001036360 <_ZN4core3fmt3num3imp52_$LT$impl$u20$core..fmt..Display$u20$for$u20$u32$GT$3fmt17h9cef8b38c599b6ddE>:
9000000001036360:	2a800084 	ld.wu       	$a0, $a0, 0
9000000001036364:	001500a6 	move        	$a2, $a1
9000000001036368:	03800405 	ori         	$a1, $zero, 0x1
900000000103636c:	53fe0fff 	b           	-500(0xffffe0c)	# 9000000001036178 <_ZN4core3fmt3num3imp7fmt_u6417h1e59b8223145771dE.llvm.4803403633740665608>

9000000001036370 <_ZN4core3fmt3num3imp52_$LT$impl$u20$core..fmt..Display$u20$for$u20$u64$GT$3fmt17hff14131a0735f195E>:
9000000001036370:	28c00084 	ld.d        	$a0, $a0, 0
9000000001036374:	001500a6 	move        	$a2, $a1
9000000001036378:	03800405 	ori         	$a1, $zero, 0x1
900000000103637c:	53fdffff 	b           	-516(0xffffdfc)	# 9000000001036178 <_ZN4core3fmt3num3imp7fmt_u6417h1e59b8223145771dE.llvm.4803403633740665608>

9000000001036380 <_ZN4core6result13unwrap_failed17hc9198e820c2af379E>:
9000000001036380:	02fe0063 	addi.d      	$sp, $sp, -128(0xf80)
9000000001036384:	29c1e061 	st.d        	$ra, $sp, 120(0x78)
9000000001036388:	29c08067 	st.d        	$a3, $sp, 32(0x20)
900000000103638c:	29c04065 	st.d        	$a1, $sp, 16(0x10)
9000000001036390:	29c06066 	st.d        	$a2, $sp, 24(0x18)
9000000001036394:	29c02064 	st.d        	$a0, $sp, 8(0x8)
9000000001036398:	1c000004 	pcaddu12i   	$a0, 0
900000000103639c:	02c46084 	addi.d      	$a0, $a0, 280(0x118)
90000000010363a0:	1c000045 	pcaddu12i   	$a1, 2(0x2)
90000000010363a4:	02ffc0a5 	addi.d      	$a1, $a1, -16(0xff0)
90000000010363a8:	03800809 	ori         	$a5, $zero, 0x2
90000000010363ac:	03800006 	ori         	$a2, $zero, 0x0
90000000010363b0:	02c16067 	addi.d      	$a3, $sp, 88(0x58)
90000000010363b4:	29c1c064 	st.d        	$a0, $sp, 112(0x70)
90000000010363b8:	02c06064 	addi.d      	$a0, $sp, 24(0x18)
90000000010363bc:	29c14069 	st.d        	$a5, $sp, 80(0x50)
90000000010363c0:	29c12067 	st.d        	$a3, $sp, 72(0x48)
90000000010363c4:	29c0e066 	st.d        	$a2, $sp, 56(0x38)
90000000010363c8:	29c0c069 	st.d        	$a5, $sp, 48(0x30)
90000000010363cc:	29c0a065 	st.d        	$a1, $sp, 40(0x28)
90000000010363d0:	00150105 	move        	$a1, $a4
90000000010363d4:	29c1a064 	st.d        	$a0, $sp, 104(0x68)
90000000010363d8:	1c000004 	pcaddu12i   	$a0, 0
90000000010363dc:	02c3c084 	addi.d      	$a0, $a0, 240(0xf0)
90000000010363e0:	29c18064 	st.d        	$a0, $sp, 96(0x60)
90000000010363e4:	02c02064 	addi.d      	$a0, $sp, 8(0x8)
90000000010363e8:	29c16064 	st.d        	$a0, $sp, 88(0x58)
90000000010363ec:	02c0a064 	addi.d      	$a0, $sp, 40(0x28)
90000000010363f0:	57f283ff 	bl          	-3456(0xffff280)	# 9000000001035670 <_ZN4core9panicking9panic_fmt17h7deed37ee899fd65E>
90000000010363f4:	002a0000 	break       	0x0

90000000010363f8 <_ZN73_$LT$core..fmt..num..LowerHex$u20$as$u20$core..fmt..num..GenericRadix$GT$5digit17h82926a1bf5a1cfa4E>:
90000000010363f8:	00408084 	slli.w      	$a0, $a0, 0x0
90000000010363fc:	03802806 	ori         	$a2, $zero, 0xa
9000000001036400:	0343fc85 	andi        	$a1, $a0, 0xff
9000000001036404:	6c0010a6 	bgeu        	$a1, $a2, 16(0x10)	# 9000000001036414 <_ZN73_$LT$core..fmt..num..LowerHex$u20$as$u20$core..fmt..num..GenericRadix$GT$5digit17h82926a1bf5a1cfa4E+0x1c>
9000000001036408:	0380c005 	ori         	$a1, $zero, 0x30
900000000103640c:	001010a4 	add.w       	$a0, $a1, $a0
9000000001036410:	4c000020 	jirl        	$zero, $ra, 0
9000000001036414:	024040a5 	sltui       	$a1, $a1, 16(0x10)
9000000001036418:	580010a0 	beq         	$a1, $zero, 16(0x10)	# 9000000001036428 <_ZN73_$LT$core..fmt..num..LowerHex$u20$as$u20$core..fmt..num..GenericRadix$GT$5digit17h82926a1bf5a1cfa4E+0x30>
900000000103641c:	03815c05 	ori         	$a1, $zero, 0x57
9000000001036420:	001010a4 	add.w       	$a0, $a1, $a0
9000000001036424:	4c000020 	jirl        	$zero, $ra, 0
9000000001036428:	02fe8063 	addi.d      	$sp, $sp, -96(0xfa0)
900000000103642c:	29c16061 	st.d        	$ra, $sp, 88(0x58)
9000000001036430:	29001064 	st.b        	$a0, $sp, 4(0x4)
9000000001036434:	1c000044 	pcaddu12i   	$a0, 2(0x2)
9000000001036438:	02fdf084 	addi.d      	$a0, $a0, -132(0xf7c)
900000000103643c:	03800807 	ori         	$a3, $zero, 0x2
9000000001036440:	03800005 	ori         	$a1, $zero, 0x0
9000000001036444:	02c0e066 	addi.d      	$a2, $sp, 56(0x38)
9000000001036448:	29c0c067 	st.d        	$a3, $sp, 48(0x30)
900000000103644c:	29c0a066 	st.d        	$a2, $sp, 40(0x28)
9000000001036450:	29c06065 	st.d        	$a1, $sp, 24(0x18)
9000000001036454:	29c04067 	st.d        	$a3, $sp, 16(0x10)
9000000001036458:	29c02064 	st.d        	$a0, $sp, 8(0x8)
900000000103645c:	1c000044 	pcaddu12i   	$a0, 2(0x2)
9000000001036460:	28c47084 	ld.d        	$a0, $a0, 284(0x11c)
9000000001036464:	02c01065 	addi.d      	$a1, $sp, 4(0x4)
9000000001036468:	29c14064 	st.d        	$a0, $sp, 80(0x50)
900000000103646c:	29c12065 	st.d        	$a1, $sp, 72(0x48)
9000000001036470:	29c10064 	st.d        	$a0, $sp, 64(0x40)
9000000001036474:	1c000024 	pcaddu12i   	$a0, 1(0x1)
9000000001036478:	02e08084 	addi.d      	$a0, $a0, -2016(0x820)
900000000103647c:	29c0e064 	st.d        	$a0, $sp, 56(0x38)
9000000001036480:	02c02064 	addi.d      	$a0, $sp, 8(0x8)
9000000001036484:	1c000045 	pcaddu12i   	$a1, 2(0x2)
9000000001036488:	02fd30a5 	addi.d      	$a1, $a1, -180(0xf4c)
900000000103648c:	57f1e7ff 	bl          	-3612(0xffff1e4)	# 9000000001035670 <_ZN4core9panicking9panic_fmt17h7deed37ee899fd65E>
9000000001036490:	002a0000 	break       	0x0
9000000001036494:	00000000 	0x00000000

9000000001036498 <_ZN4core3fmt3num55_$LT$impl$u20$core..fmt..LowerHex$u20$for$u20$isize$GT$3fmt17hd4a608c3e9e4e332E>:
9000000001036498:	001500a6 	move        	$a2, $a1
900000000103649c:	28c00085 	ld.d        	$a1, $a0, 0
90000000010364a0:	1c000004 	pcaddu12i   	$a0, 0
90000000010364a4:	02deec84 	addi.d      	$a0, $a0, 1979(0x7bb)
90000000010364a8:	5000a000 	b           	160(0xa0)	# 9000000001036548 <_ZN4core3fmt3num12GenericRadix7fmt_int17hded4f09ad8add160E>
90000000010364ac:	00000000 	0x00000000

90000000010364b0 <_ZN42_$LT$$RF$T$u20$as$u20$core..fmt..Debug$GT$3fmt17h84446656e14eab3bE>:
90000000010364b0:	28c00086 	ld.d        	$a2, $a0, 0
90000000010364b4:	28c02084 	ld.d        	$a0, $a0, 8(0x8)
90000000010364b8:	28c06087 	ld.d        	$a3, $a0, 24(0x18)
90000000010364bc:	001500c4 	move        	$a0, $a2
90000000010364c0:	4c0000e0 	jirl        	$zero, $a3, 0
90000000010364c4:	00000000 	0x00000000

90000000010364c8 <_ZN44_$LT$$RF$T$u20$as$u20$core..fmt..Display$GT$3fmt17h28189a2ee54a57d6E>:
90000000010364c8:	001500a7 	move        	$a3, $a1
90000000010364cc:	28c02086 	ld.d        	$a2, $a0, 8(0x8)
90000000010364d0:	28c00085 	ld.d        	$a1, $a0, 0
90000000010364d4:	001500e4 	move        	$a0, $a3
90000000010364d8:	53f893ff 	b           	-1904(0xffff890)	# 9000000001035d68 <_ZN4core3fmt9Formatter3pad17h0b8cb1dee35d2891E>
90000000010364dc:	00000000 	0x00000000

90000000010364e0 <_ZN36_$LT$T$u20$as$u20$core..any..Any$GT$7type_id17h366022c4f0194876E>:
90000000010364e0:	1533eb44 	lu12i.w     	$a0, -417958(0x99f5a)
90000000010364e4:	03bcf084 	ori         	$a0, $a0, 0xf3c
90000000010364e8:	1694a5c4 	lu32i.d     	$a0, 304430(0x4a52e)
90000000010364ec:	03265c84 	lu52i.d     	$a0, $a0, -1641(0x997)
90000000010364f0:	4c000020 	jirl        	$zero, $ra, 0
90000000010364f4:	00000000 	0x00000000

90000000010364f8 <_ZN102_$LT$core..iter..adapters..map..Map$LT$I$C$F$GT$$u20$as$u20$core..iter..traits..iterator..Iterator$GT$4fold17h9daeac1da71383a4E>:
90000000010364f8:	58002085 	beq         	$a0, $a1, 32(0x20)	# 9000000001036518 <_ZN102_$LT$core..iter..adapters..map..Map$LT$I$C$F$GT$$u20$as$u20$core..iter..traits..iterator..Iterator$GT$4fold17h9daeac1da71383a4E+0x20>
90000000010364fc:	02befc07 	addi.w      	$a3, $zero, -65(0xfbf)
9000000001036500:	28000088 	ld.b        	$a4, $a0, 0
9000000001036504:	02c00484 	addi.d      	$a0, $a0, 1(0x1)
9000000001036508:	001220e8 	slt         	$a4, $a3, $a4
900000000103650c:	00df0108 	bstrpick.d  	$a4, $a4, 0x1f, 0x0
9000000001036510:	0010a0c6 	add.d       	$a2, $a2, $a4
9000000001036514:	5fffeca4 	bne         	$a1, $a0, -20(0x3ffec)	# 9000000001036500 <_ZN102_$LT$core..iter..adapters..map..Map$LT$I$C$F$GT$$u20$as$u20$core..iter..traits..iterator..Iterator$GT$4fold17h9daeac1da71383a4E+0x8>
9000000001036518:	001500c4 	move        	$a0, $a2
900000000103651c:	4c000020 	jirl        	$zero, $ra, 0

9000000001036520 <_ZN4core5panic10panic_info9PanicInfo7message17h81c008049ecbb73eE>:
9000000001036520:	28c04084 	ld.d        	$a0, $a0, 16(0x10)
9000000001036524:	4c000020 	jirl        	$zero, $ra, 0

9000000001036528 <_ZN4core5panic10panic_info9PanicInfo8location17he81541ce8b957312E>:
9000000001036528:	28c06084 	ld.d        	$a0, $a0, 24(0x18)
900000000103652c:	4c000020 	jirl        	$zero, $ra, 0

9000000001036530 <_ZN4core5panic8location8Location4file17hc2363c9a5818d547E>:
9000000001036530:	28c00086 	ld.d        	$a2, $a0, 0
9000000001036534:	28c02085 	ld.d        	$a1, $a0, 8(0x8)
9000000001036538:	001500c4 	move        	$a0, $a2
900000000103653c:	4c000020 	jirl        	$zero, $ra, 0

9000000001036540 <_ZN4core5panic8location8Location4line17h7c30dacfb24261a1E>:
9000000001036540:	28804084 	ld.w        	$a0, $a0, 16(0x10)
9000000001036544:	4c000020 	jirl        	$zero, $ra, 0

9000000001036548 <_ZN4core3fmt3num12GenericRadix7fmt_int17hded4f09ad8add160E>:
9000000001036548:	02fd4063 	addi.d      	$sp, $sp, -176(0xf50)
900000000103654c:	29c2a061 	st.d        	$ra, $sp, 168(0xa8)
9000000001036550:	29c2807b 	st.d        	$s4, $sp, 160(0xa0)
9000000001036554:	29c2607a 	st.d        	$s3, $sp, 152(0x98)
9000000001036558:	29c24079 	st.d        	$s2, $sp, 144(0x90)
900000000103655c:	29c22078 	st.d        	$s1, $sp, 136(0x88)
9000000001036560:	29c20077 	st.d        	$s0, $sp, 128(0x80)
9000000001036564:	001500d7 	move        	$s0, $a2
9000000001036568:	001500b8 	move        	$s1, $a1
900000000103656c:	03800019 	ori         	$s2, $zero, 0x0
9000000001036570:	02c0007a 	addi.d      	$s3, $sp, 0
9000000001036574:	03403f04 	andi        	$a0, $s1, 0xf
9000000001036578:	0010e75b 	add.d       	$s4, $s3, $s2
900000000103657c:	57fe7fff 	bl          	-388(0xffffe7c)	# 90000000010363f8 <_ZN73_$LT$core..fmt..num..LowerHex$u20$as$u20$core..fmt..num..GenericRadix$GT$5digit17h82926a1bf5a1cfa4E>
9000000001036580:	02ffff39 	addi.d      	$s2, $s2, -1(0xfff)
9000000001036584:	00451318 	srli.d      	$s1, $s1, 0x4
9000000001036588:	2901ff64 	st.b        	$a0, $s4, 127(0x7f)
900000000103658c:	47ffeb1f 	bnez        	$s1, -24(0x7fffe8)	# 9000000001036574 <_ZN4core3fmt3num12GenericRadix7fmt_int17hded4f09ad8add160E+0x2c>
9000000001036590:	02c20324 	addi.d      	$a0, $s2, 128(0x80)
9000000001036594:	03820405 	ori         	$a1, $zero, 0x81
9000000001036598:	6c004c85 	bgeu        	$a0, $a1, 76(0x4c)	# 90000000010365e4 <_ZN4core3fmt3num12GenericRadix7fmt_int17hded4f09ad8add160E+0x9c>
900000000103659c:	03800004 	ori         	$a0, $zero, 0x0
90000000010365a0:	03800405 	ori         	$a1, $zero, 0x1
90000000010365a4:	1c000006 	pcaddu12i   	$a2, 0
90000000010365a8:	02dc30c6 	addi.d      	$a2, $a2, 1804(0x70c)
90000000010365ac:	03800807 	ori         	$a3, $zero, 0x2
90000000010365b0:	0011e489 	sub.d       	$a5, $a0, $s2
90000000010365b4:	0010e744 	add.d       	$a0, $s3, $s2
90000000010365b8:	02c20088 	addi.d      	$a4, $a0, 128(0x80)
90000000010365bc:	001502e4 	move        	$a0, $s0
90000000010365c0:	57f3cbff 	bl          	-3128(0xffff3c8)	# 9000000001035988 <_ZN4core3fmt9Formatter12pad_integral17habf59e458b07c8f4E>
90000000010365c4:	28c20077 	ld.d        	$s0, $sp, 128(0x80)
90000000010365c8:	28c22078 	ld.d        	$s1, $sp, 136(0x88)
90000000010365cc:	28c24079 	ld.d        	$s2, $sp, 144(0x90)
90000000010365d0:	28c2607a 	ld.d        	$s3, $sp, 152(0x98)
90000000010365d4:	28c2807b 	ld.d        	$s4, $sp, 160(0xa0)
90000000010365d8:	28c2a061 	ld.d        	$ra, $sp, 168(0xa8)
90000000010365dc:	02c2c063 	addi.d      	$sp, $sp, 176(0xb0)
90000000010365e0:	4c000020 	jirl        	$zero, $ra, 0
90000000010365e4:	03820005 	ori         	$a1, $zero, 0x80
90000000010365e8:	1c000046 	pcaddu12i   	$a2, 2(0x2)
90000000010365ec:	02f800c6 	addi.d      	$a2, $a2, -512(0xe00)
90000000010365f0:	57fb23ff 	bl          	-1248(0xffffb20)	# 9000000001036110 <_ZN4core5slice5index26slice_start_index_len_fail17h126875fde9d4000dE>
90000000010365f4:	002a0000 	break       	0x0
