
target/loongarch64-unknown-linux-gnu/release/store_fault:     file format elf64-loongarch


Disassembly of section .text:

0000000000001000 <_start>:
    1000:	02fdc063 	addi.d      	$sp, $sp, -144(0xf70)
    1004:	29c22061 	st.d        	$ra, $sp, 136(0x88)
    1008:	29c2007e 	st.d        	$s7, $sp, 128(0x80)
    100c:	29c1e07d 	st.d        	$s6, $sp, 120(0x78)
    1010:	29c1c07c 	st.d        	$s5, $sp, 112(0x70)
    1014:	29c1a07b 	st.d        	$s4, $sp, 104(0x68)
    1018:	29c1807a 	st.d        	$s3, $sp, 96(0x60)
    101c:	29c16079 	st.d        	$s2, $sp, 88(0x58)
    1020:	29c14078 	st.d        	$s1, $sp, 80(0x50)
    1024:	29c12077 	st.d        	$s0, $sp, 72(0x48)
    1028:	00150097 	move        	$s0, $a0
    102c:	001500b8 	move        	$s1, $a1
    1030:	1c0000e4 	pcaddu12i   	$a0, 7(0x7)
    1034:	28dda084 	ld.d        	$a0, $a0, 1896(0x768)
    1038:	1c0000e5 	pcaddu12i   	$a1, 7(0x7)
    103c:	28dde0a5 	ld.d        	$a1, $a1, 1912(0x778)
    1040:	6c0024a4 	bgeu        	$a1, $a0, 36(0x24)	# 1064 <_start+0x64>
    1044:	1c0000e4 	pcaddu12i   	$a0, 7(0x7)
    1048:	28ddb084 	ld.d        	$a0, $a0, 1900(0x76c)
    104c:	03800005 	ori         	$a1, $zero, 0x0
    1050:	29000085 	st.b        	$a1, $a0, 0
    1054:	02c00484 	addi.d      	$a0, $a0, 1(0x1)
    1058:	1c0000e6 	pcaddu12i   	$a2, 7(0x7)
    105c:	28dd00c6 	ld.d        	$a2, $a2, 1856(0x740)
    1060:	6bfff086 	bltu        	$a0, $a2, -16(0x3fff0)	# 1050 <_start+0x50>
    1064:	1c000184 	pcaddu12i   	$a0, 12(0xc)
    1068:	02fe7084 	addi.d      	$a0, $a0, -100(0xf9c)
    106c:	540c2c00 	bl          	3116(0xc2c)	# 1c98 <_ZN78_$LT$buddy_system_allocator..LockedHeap$u20$as$u20$core..ops..deref..Deref$GT$5deref17hc1416cd51f5c3374E>
    1070:	03800419 	ori         	$s2, $zero, 0x1
    1074:	02c0209b 	addi.d      	$s4, $a0, 8(0x8)
    1078:	386ae49a 	amadd_db.d  	$s3, $s2, $a0
    107c:	28c00365 	ld.d        	$a1, $s4, 0
    1080:	38720000 	dbar        	0x0
    1084:	5ffff8ba 	bne         	$a1, $s3, -8(0x3fff8)	# 107c <_start+0x7c>
    1088:	02c04084 	addi.d      	$a0, $a0, 16(0x10)
    108c:	29c0a07a 	st.d        	$s3, $sp, 40(0x28)
    1090:	29c0807b 	st.d        	$s4, $sp, 32(0x20)
    1094:	29c0c064 	st.d        	$a0, $sp, 48(0x30)
    1098:	1c000105 	pcaddu12i   	$a1, 8(0x8)
    109c:	02fda0a5 	addi.d      	$a1, $a1, -152(0xf68)
    10a0:	14000086 	lu12i.w     	$a2, 4(0x4)
    10a4:	5407dc00 	bl          	2012(0x7dc)	# 1880 <_ZN22buddy_system_allocator4Heap4init17h2a00266a195ff3f7E>
    10a8:	38720000 	dbar        	0x0
    10ac:	02c00744 	addi.d      	$a0, $s3, 1(0x1)
    10b0:	03800006 	ori         	$a2, $zero, 0x0
    10b4:	03802005 	ori         	$a1, $zero, 0x8
    10b8:	29c00364 	st.d        	$a0, $s4, 0
    10bc:	29c04066 	st.d        	$a2, $sp, 16(0x10)
    10c0:	29c02065 	st.d        	$a1, $sp, 8(0x8)
    10c4:	29c06066 	st.d        	$a2, $sp, 24(0x18)
    10c8:	4000cee0 	beqz        	$s0, 204(0xcc)	# 1194 <_start+0x194>
    10cc:	0380001c 	ori         	$s5, $zero, 0x0
    10d0:	02c0807a 	addi.d      	$s3, $sp, 32(0x20)
    10d4:	02c0207b 	addi.d      	$s4, $sp, 8(0x8)
    10d8:	50003000 	b           	48(0x30)	# 1108 <_start+0x108>
    10dc:	28c06065 	ld.d        	$a1, $sp, 24(0x18)
    10e0:	28c02066 	ld.d        	$a2, $sp, 8(0x8)
    10e4:	004110a4 	slli.d      	$a0, $a1, 0x4
    10e8:	02c0079c 	addi.d      	$s5, $s5, 1(0x1)
    10ec:	381c10de 	stx.d       	$s7, $a2, $a0
    10f0:	002d98a4 	alsl.d      	$a0, $a1, $a2, 0x4
    10f4:	29c0209d 	st.d        	$s6, $a0, 8(0x8)
    10f8:	28c06064 	ld.d        	$a0, $sp, 24(0x18)
    10fc:	02c00486 	addi.d      	$a2, $a0, 1(0x1)
    1100:	29c06066 	st.d        	$a2, $sp, 24(0x18)
    1104:	58008f97 	beq         	$s5, $s0, 140(0x8c)	# 1190 <_start+0x190>
    1108:	00410f84 	slli.d      	$a0, $s5, 0x3
    110c:	380c6085 	ldx.d       	$a1, $a0, $s1
    1110:	02bffc06 	addi.w      	$a2, $zero, -1(0xfff)
    1114:	001098a4 	add.d       	$a0, $a1, $a2
    1118:	02c004c6 	addi.d      	$a2, $a2, 1(0x1)
    111c:	2a000484 	ld.bu       	$a0, $a0, 1(0x1)
    1120:	47fff49f 	bnez        	$a0, -12(0x7ffff4)	# 1114 <_start+0x114>
    1124:	00150344 	move        	$a0, $s3
    1128:	54307000 	bl          	12400(0x3070)	# 4198 <_ZN4core3str8converts9from_utf817h2c5548cbb26615fbE>
    112c:	28c08064 	ld.d        	$a0, $sp, 32(0x20)
    1130:	58002899 	beq         	$a0, $s2, 40(0x28)	# 1158 <_start+0x158>
    1134:	28c0c07d 	ld.d        	$s6, $sp, 48(0x30)
    1138:	28c0a07e 	ld.d        	$s7, $sp, 40(0x28)
    113c:	28c06065 	ld.d        	$a1, $sp, 24(0x18)
    1140:	28c04064 	ld.d        	$a0, $sp, 16(0x10)
    1144:	5fff9c85 	bne         	$a0, $a1, -100(0x3ff9c)	# 10e0 <_start+0xe0>
    1148:	00150364 	move        	$a0, $s4
    114c:	00150326 	move        	$a2, $s2
    1150:	54057800 	bl          	1400(0x578)	# 16c8 <_ZN5alloc7raw_vec19RawVec$LT$T$C$A$GT$7reserve21do_reserve_and_handle17hc2846c1f72ceb886E>
    1154:	53ff8bff 	b           	-120(0xfffff88)	# 10dc <_start+0xdc>
    1158:	28c0a064 	ld.d        	$a0, $sp, 40(0x28)
    115c:	29c0e064 	st.d        	$a0, $sp, 56(0x38)
    1160:	28c0c064 	ld.d        	$a0, $sp, 48(0x30)
    1164:	29c10064 	st.d        	$a0, $sp, 64(0x40)
    1168:	1c0000a4 	pcaddu12i   	$a0, 5(0x5)
    116c:	02fc1484 	addi.d      	$a0, $a0, -251(0xf05)
    1170:	1c0000e7 	pcaddu12i   	$a3, 7(0x7)
    1174:	02fac0e7 	addi.d      	$a3, $a3, -336(0xeb0)
    1178:	0380ac05 	ori         	$a1, $zero, 0x2b
    117c:	02c0e066 	addi.d      	$a2, $sp, 56(0x38)
    1180:	1c0000e8 	pcaddu12i   	$a4, 7(0x7)
    1184:	02fba108 	addi.d      	$a4, $a4, -280(0xee8)
    1188:	542c3800 	bl          	11320(0x2c38)	# 3dc0 <_ZN4core6result13unwrap_failed17hc9198e820c2af379E>
    118c:	50001400 	b           	20(0x14)	# 11a0 <_start+0x1a0>
    1190:	28c02065 	ld.d        	$a1, $sp, 8(0x8)
    1194:	001502e4 	move        	$a0, $s0
    1198:	54003800 	bl          	56(0x38)	# 11d0 <main>
    119c:	54047400 	bl          	1140(0x474)	# 1610 <_ZN8user_lib6thread4exit17h3c0c3887e4102bdbE>
    11a0:	002a0000 	break       	0x0
    11a4:	50001400 	b           	20(0x14)	# 11b8 <_start+0x1b8>
    11a8:	00150097 	move        	$s0, $a0
    11ac:	02c08064 	addi.d      	$a0, $sp, 32(0x20)
    11b0:	54010800 	bl          	264(0x108)	# 12b8 <_ZN4core3ptr80drop_in_place$LT$spin..mutex..MutexGuard$LT$buddy_system_allocator..Heap$GT$$GT$17h5e52a6d59009d305E>
    11b4:	50001000 	b           	16(0x10)	# 11c4 <_start+0x1c4>
    11b8:	00150097 	move        	$s0, $a0
    11bc:	02c02064 	addi.d      	$a0, $sp, 8(0x8)
    11c0:	5400c800 	bl          	200(0xc8)	# 1288 <_ZN4core3ptr51drop_in_place$LT$alloc..vec..Vec$LT$$RF$str$GT$$GT$17hf55c3105c52c05aeE>
    11c4:	001502e4 	move        	$a0, $s0
    11c8:	54016800 	bl          	360(0x168)	# 1330 <_Unwind_Resume>
    11cc:	002a0000 	break       	0x0

00000000000011d0 <main>:
    11d0:	02fec063 	addi.d      	$sp, $sp, -80(0xfb0)
    11d4:	29c12061 	st.d        	$ra, $sp, 72(0x48)
    11d8:	29c10079 	st.d        	$s2, $sp, 64(0x40)
    11dc:	29c0e078 	st.d        	$s1, $sp, 56(0x38)
    11e0:	29c0c077 	st.d        	$s0, $sp, 48(0x30)
    11e4:	03800017 	ori         	$s0, $zero, 0x0
    11e8:	03800419 	ori         	$s2, $zero, 0x1
    11ec:	29c0a077 	st.d        	$s0, $sp, 40(0x28)
    11f0:	1c0000b8 	pcaddu12i   	$s1, 5(0x5)
    11f4:	02f96318 	addi.d      	$s1, $s1, -424(0xe58)
    11f8:	29c08078 	st.d        	$s1, $sp, 32(0x20)
    11fc:	29c04077 	st.d        	$s0, $sp, 16(0x10)
    1200:	29c02079 	st.d        	$s2, $sp, 8(0x8)
    1204:	1c0000e4 	pcaddu12i   	$a0, 7(0x7)
    1208:	02f7f084 	addi.d      	$a0, $a0, -516(0xdfc)
    120c:	29c00064 	st.d        	$a0, $sp, 0
    1210:	02c00064 	addi.d      	$a0, $sp, 0
    1214:	54036c00 	bl          	876(0x36c)	# 1580 <_ZN8user_lib7console6_print17hb99d1dc850c407dbE>
    1218:	29c0a077 	st.d        	$s0, $sp, 40(0x28)
    121c:	29c08078 	st.d        	$s1, $sp, 32(0x20)
    1220:	29c04077 	st.d        	$s0, $sp, 16(0x10)
    1224:	29c02079 	st.d        	$s2, $sp, 8(0x8)
    1228:	1c0000e4 	pcaddu12i   	$a0, 7(0x7)
    122c:	02f7a084 	addi.d      	$a0, $a0, -536(0xde8)
    1230:	29c00064 	st.d        	$a0, $sp, 0
    1234:	02c00064 	addi.d      	$a0, $sp, 0
    1238:	54034800 	bl          	840(0x348)	# 1580 <_ZN8user_lib7console6_print17hb99d1dc850c407dbE>
    123c:	03800004 	ori         	$a0, $zero, 0x0
    1240:	290002e4 	st.b        	$a0, $s0, 0
    1244:	28c0c077 	ld.d        	$s0, $sp, 48(0x30)
    1248:	28c0e078 	ld.d        	$s1, $sp, 56(0x38)
    124c:	28c10079 	ld.d        	$s2, $sp, 64(0x40)
    1250:	28c12061 	ld.d        	$ra, $sp, 72(0x48)
    1254:	02c14063 	addi.d      	$sp, $sp, 80(0x50)
    1258:	4c000020 	jirl        	$zero, $ra, 0
    125c:	00000000 	0x00000000

0000000000001260 <__rust_alloc>:
    1260:	5000d800 	b           	216(0xd8)	# 1338 <__rg_alloc>
    1264:	00000000 	0x00000000

0000000000001268 <__rust_dealloc>:
    1268:	5000e800 	b           	232(0xe8)	# 1350 <__rg_dealloc>
    126c:	00000000 	0x00000000

0000000000001270 <__rust_realloc>:
    1270:	5000f800 	b           	248(0xf8)	# 1368 <__rg_realloc>
    1274:	00000000 	0x00000000

0000000000001278 <__rust_alloc_error_handler>:
    1278:	500b4000 	b           	2880(0xb40)	# 1db8 <__rg_oom>
    127c:	00000000 	0x00000000

0000000000001280 <_ZN4core3ptr48drop_in_place$LT$core..str..error..Utf8Error$GT$17ha1d85d4a29dde88bE>:
    1280:	4c000020 	jirl        	$zero, $ra, 0
    1284:	00000000 	0x00000000

0000000000001288 <_ZN4core3ptr51drop_in_place$LT$alloc..vec..Vec$LT$$RF$str$GT$$GT$17hf55c3105c52c05aeE>:
    1288:	02ffc063 	addi.d      	$sp, $sp, -16(0xff0)
    128c:	29c02061 	st.d        	$ra, $sp, 8(0x8)
    1290:	28c02085 	ld.d        	$a1, $a0, 8(0x8)
    1294:	400018a0 	beqz        	$a1, 24(0x18)	# 12ac <_ZN4core3ptr51drop_in_place$LT$alloc..vec..Vec$LT$$RF$str$GT$$GT$17hf55c3105c52c05aeE+0x24>
    1298:	004110a5 	slli.d      	$a1, $a1, 0x4
    129c:	400010a0 	beqz        	$a1, 16(0x10)	# 12ac <_ZN4core3ptr51drop_in_place$LT$alloc..vec..Vec$LT$$RF$str$GT$$GT$17hf55c3105c52c05aeE+0x24>
    12a0:	28c00084 	ld.d        	$a0, $a0, 0
    12a4:	03802006 	ori         	$a2, $zero, 0x8
    12a8:	57ffc3ff 	bl          	-64(0xfffffc0)	# 1268 <__rust_dealloc>
    12ac:	28c02061 	ld.d        	$ra, $sp, 8(0x8)
    12b0:	02c04063 	addi.d      	$sp, $sp, 16(0x10)
    12b4:	4c000020 	jirl        	$zero, $ra, 0

00000000000012b8 <_ZN4core3ptr80drop_in_place$LT$spin..mutex..MutexGuard$LT$buddy_system_allocator..Heap$GT$$GT$17h5e52a6d59009d305E>:
    12b8:	28c00085 	ld.d        	$a1, $a0, 0
    12bc:	28c02084 	ld.d        	$a0, $a0, 8(0x8)
    12c0:	38720000 	dbar        	0x0
    12c4:	02c00484 	addi.d      	$a0, $a0, 1(0x1)
    12c8:	29c000a4 	st.d        	$a0, $a1, 0
    12cc:	4c000020 	jirl        	$zero, $ra, 0

00000000000012d0 <rust_oom>:
    12d0:	02fe8063 	addi.d      	$sp, $sp, -96(0xfa0)
    12d4:	29c16061 	st.d        	$ra, $sp, 88(0x58)
    12d8:	29c04065 	st.d        	$a1, $sp, 16(0x10)
    12dc:	29c02064 	st.d        	$a0, $sp, 8(0x8)
    12e0:	03800406 	ori         	$a2, $zero, 0x1
    12e4:	03800004 	ori         	$a0, $zero, 0x0
    12e8:	02c12065 	addi.d      	$a1, $sp, 72(0x48)
    12ec:	29c10066 	st.d        	$a2, $sp, 64(0x40)
    12f0:	29c0e065 	st.d        	$a1, $sp, 56(0x38)
    12f4:	29c0a064 	st.d        	$a0, $sp, 40(0x28)
    12f8:	29c08066 	st.d        	$a2, $sp, 32(0x20)
    12fc:	1c0000e4 	pcaddu12i   	$a0, 7(0x7)
    1300:	02f51084 	addi.d      	$a0, $a0, -700(0xd44)
    1304:	29c06064 	st.d        	$a0, $sp, 24(0x18)
    1308:	1c0000e4 	pcaddu12i   	$a0, 7(0x7)
    130c:	28d28084 	ld.d        	$a0, $a0, 1184(0x4a0)
    1310:	29c14064 	st.d        	$a0, $sp, 80(0x50)
    1314:	02c02064 	addi.d      	$a0, $sp, 8(0x8)
    1318:	29c12064 	st.d        	$a0, $sp, 72(0x48)
    131c:	02c06064 	addi.d      	$a0, $sp, 24(0x18)
    1320:	1c0000e5 	pcaddu12i   	$a1, 7(0x7)
    1324:	02f4c0a5 	addi.d      	$a1, $a1, -720(0xd30)
    1328:	540b6800 	bl          	2920(0xb68)	# 1e90 <_ZN4core9panicking9panic_fmt17h7deed37ee899fd65E>
    132c:	002a0000 	break       	0x0

0000000000001330 <_Unwind_Resume>:
    1330:	4c000020 	jirl        	$zero, $ra, 0
    1334:	00000000 	0x00000000

0000000000001338 <__rg_alloc>:
    1338:	001500a6 	move        	$a2, $a1
    133c:	00150085 	move        	$a1, $a0
    1340:	1c000184 	pcaddu12i   	$a0, 12(0xc)
    1344:	02f30084 	addi.d      	$a0, $a0, -832(0xcc0)
    1348:	50095800 	b           	2392(0x958)	# 1ca0 <_ZN87_$LT$buddy_system_allocator..LockedHeap$u20$as$u20$core..alloc..global..GlobalAlloc$GT$5alloc17h67eb8332efa0c74fE>
    134c:	00000000 	0x00000000

0000000000001350 <__rg_dealloc>:
    1350:	001500c7 	move        	$a3, $a2
    1354:	001500a6 	move        	$a2, $a1
    1358:	00150085 	move        	$a1, $a0
    135c:	1c000184 	pcaddu12i   	$a0, 12(0xc)
    1360:	02f29084 	addi.d      	$a0, $a0, -860(0xca4)
    1364:	5009b400 	b           	2484(0x9b4)	# 1d18 <_ZN87_$LT$buddy_system_allocator..LockedHeap$u20$as$u20$core..alloc..global..GlobalAlloc$GT$7dealloc17he1686c51cb18a445E>

0000000000001368 <__rg_realloc>:
    1368:	02ff4063 	addi.d      	$sp, $sp, -48(0xfd0)
    136c:	29c0a061 	st.d        	$ra, $sp, 40(0x28)
    1370:	29c0807b 	st.d        	$s4, $sp, 32(0x20)
    1374:	29c0607a 	st.d        	$s3, $sp, 24(0x18)
    1378:	29c04079 	st.d        	$s2, $sp, 16(0x10)
    137c:	29c02078 	st.d        	$s1, $sp, 8(0x8)
    1380:	29c00077 	st.d        	$s0, $sp, 0
    1384:	001500b8 	move        	$s1, $a1
    1388:	00150099 	move        	$s2, $a0
    138c:	1c000184 	pcaddu12i   	$a0, 12(0xc)
    1390:	02f1d084 	addi.d      	$a0, $a0, -908(0xc74)
    1394:	001500e5 	move        	$a1, $a3
    1398:	001500fb 	move        	$s4, $a3
    139c:	001500d7 	move        	$s0, $a2
    13a0:	54090000 	bl          	2304(0x900)	# 1ca0 <_ZN87_$LT$buddy_system_allocator..LockedHeap$u20$as$u20$core..alloc..global..GlobalAlloc$GT$5alloc17h67eb8332efa0c74fE>
    13a4:	0015009a 	move        	$s3, $a0
    13a8:	40003c80 	beqz        	$a0, 60(0x3c)	# 13e4 <__rg_realloc+0x7c>
    13ac:	0012e364 	sltu        	$a0, $s4, $s1
    13b0:	00408084 	slli.w      	$a0, $a0, 0x0
    13b4:	00139305 	masknez     	$a1, $s1, $a0
    13b8:	00131364 	maskeqz     	$a0, $s4, $a0
    13bc:	00151486 	or          	$a2, $a0, $a1
    13c0:	00150344 	move        	$a0, $s3
    13c4:	00150325 	move        	$a1, $s2
    13c8:	54047800 	bl          	1144(0x478)	# 1840 <memcpy>
    13cc:	1c000184 	pcaddu12i   	$a0, 12(0xc)
    13d0:	02f0d084 	addi.d      	$a0, $a0, -972(0xc34)
    13d4:	00150325 	move        	$a1, $s2
    13d8:	00150306 	move        	$a2, $s1
    13dc:	001502e7 	move        	$a3, $s0
    13e0:	54093800 	bl          	2360(0x938)	# 1d18 <_ZN87_$LT$buddy_system_allocator..LockedHeap$u20$as$u20$core..alloc..global..GlobalAlloc$GT$7dealloc17he1686c51cb18a445E>
    13e4:	00150344 	move        	$a0, $s3
    13e8:	28c00077 	ld.d        	$s0, $sp, 0
    13ec:	28c02078 	ld.d        	$s1, $sp, 8(0x8)
    13f0:	28c04079 	ld.d        	$s2, $sp, 16(0x10)
    13f4:	28c0607a 	ld.d        	$s3, $sp, 24(0x18)
    13f8:	28c0807b 	ld.d        	$s4, $sp, 32(0x20)
    13fc:	28c0a061 	ld.d        	$ra, $sp, 40(0x28)
    1400:	02c0c063 	addi.d      	$sp, $sp, 48(0x30)
    1404:	4c000020 	jirl        	$zero, $ra, 0

0000000000001408 <_ZN4core3ptr37drop_in_place$LT$core..fmt..Error$GT$17hb724943f1fafa751E.llvm.9183959168040577287>:
    1408:	4c000020 	jirl        	$zero, $ra, 0
    140c:	00000000 	0x00000000

0000000000001410 <_ZN50_$LT$$RF$mut$u20$W$u20$as$u20$core..fmt..Write$GT$10write_char17haeba8c8f4305efc5E.llvm.9183959168040577287>:
    1410:	02ffc063 	addi.d      	$sp, $sp, -16(0xff0)
    1414:	29c02061 	st.d        	$ra, $sp, 8(0x8)
    1418:	03800004 	ori         	$a0, $zero, 0x0
    141c:	29801064 	st.w        	$a0, $sp, 4(0x4)
    1420:	004080a4 	slli.w      	$a0, $a1, 0x0
    1424:	03820005 	ori         	$a1, $zero, 0x80
    1428:	6c001085 	bgeu        	$a0, $a1, 16(0x10)	# 1438 <_ZN50_$LT$$RF$mut$u20$W$u20$as$u20$core..fmt..Write$GT$10write_char17haeba8c8f4305efc5E.llvm.9183959168040577287+0x28>
    142c:	29001064 	st.b        	$a0, $sp, 4(0x4)
    1430:	03800407 	ori         	$a3, $zero, 0x1
    1434:	50009800 	b           	152(0x98)	# 14cc <_ZN50_$LT$$RF$mut$u20$W$u20$as$u20$core..fmt..Write$GT$10write_char17haeba8c8f4305efc5E.llvm.9183959168040577287+0xbc>
    1438:	03a00005 	ori         	$a1, $zero, 0x800
    143c:	6c002085 	bgeu        	$a0, $a1, 32(0x20)	# 145c <_ZN50_$LT$$RF$mut$u20$W$u20$as$u20$core..fmt..Write$GT$10write_char17haeba8c8f4305efc5E.llvm.9183959168040577287+0x4c>
    1440:	03800805 	ori         	$a1, $zero, 0x2
    1444:	00449886 	srli.w      	$a2, $a0, 0x6
    1448:	03800807 	ori         	$a3, $zero, 0x2
    144c:	007f18a4 	bstrins.w   	$a0, $a1, 0x1f, 0x6
    1450:	29001464 	st.b        	$a0, $sp, 5(0x5)
    1454:	038300c4 	ori         	$a0, $a2, 0xc0
    1458:	50007000 	b           	112(0x70)	# 14c8 <_ZN50_$LT$$RF$mut$u20$W$u20$as$u20$core..fmt..Write$GT$10write_char17haeba8c8f4305efc5E.llvm.9183959168040577287+0xb8>
    145c:	14000205 	lu12i.w     	$a1, 16(0x10)
    1460:	6c003485 	bgeu        	$a0, $a1, 52(0x34)	# 1494 <_ZN50_$LT$$RF$mut$u20$W$u20$as$u20$core..fmt..Write$GT$10write_char17haeba8c8f4305efc5E.llvm.9183959168040577287+0x84>
    1464:	03800805 	ori         	$a1, $zero, 0x2
    1468:	00150086 	move        	$a2, $a0
    146c:	00449887 	srli.w      	$a3, $a0, 0x6
    1470:	0044b084 	srli.w      	$a0, $a0, 0xc
    1474:	007f18a6 	bstrins.w   	$a2, $a1, 0x1f, 0x6
    1478:	007f18a7 	bstrins.w   	$a3, $a1, 0x1f, 0x6
    147c:	03838084 	ori         	$a0, $a0, 0xe0
    1480:	29001866 	st.b        	$a2, $sp, 6(0x6)
    1484:	29001467 	st.b        	$a3, $sp, 5(0x5)
    1488:	29001064 	st.b        	$a0, $sp, 4(0x4)
    148c:	03800c07 	ori         	$a3, $zero, 0x3
    1490:	50003c00 	b           	60(0x3c)	# 14cc <_ZN50_$LT$$RF$mut$u20$W$u20$as$u20$core..fmt..Write$GT$10write_char17haeba8c8f4305efc5E.llvm.9183959168040577287+0xbc>
    1494:	03800806 	ori         	$a2, $zero, 0x2
    1498:	00150087 	move        	$a3, $a0
    149c:	00449885 	srli.w      	$a1, $a0, 0x6
    14a0:	0044b088 	srli.w      	$a4, $a0, 0xc
    14a4:	0044c884 	srli.w      	$a0, $a0, 0x12
    14a8:	007f18c7 	bstrins.w   	$a3, $a2, 0x1f, 0x6
    14ac:	007f18c5 	bstrins.w   	$a1, $a2, 0x1f, 0x6
    14b0:	007f18c8 	bstrins.w   	$a4, $a2, 0x1f, 0x6
    14b4:	0383c084 	ori         	$a0, $a0, 0xf0
    14b8:	29001c67 	st.b        	$a3, $sp, 7(0x7)
    14bc:	03801007 	ori         	$a3, $zero, 0x4
    14c0:	29001865 	st.b        	$a1, $sp, 6(0x6)
    14c4:	29001468 	st.b        	$a4, $sp, 5(0x5)
    14c8:	29001064 	st.b        	$a0, $sp, 4(0x4)
    14cc:	03810004 	ori         	$a0, $zero, 0x40
    14d0:	03800405 	ori         	$a1, $zero, 0x1
    14d4:	02c01066 	addi.d      	$a2, $sp, 4(0x4)
    14d8:	5402d800 	bl          	728(0x2d8)	# 17b0 <do_syscall>
    14dc:	28c02061 	ld.d        	$ra, $sp, 8(0x8)
    14e0:	03800004 	ori         	$a0, $zero, 0x0
    14e4:	02c04063 	addi.d      	$sp, $sp, 16(0x10)
    14e8:	4c000020 	jirl        	$zero, $ra, 0
    14ec:	00000000 	0x00000000

00000000000014f0 <_ZN50_$LT$$RF$mut$u20$W$u20$as$u20$core..fmt..Write$GT$9write_fmt17he4e468c783e2fbceE.llvm.9183959168040577287>:
    14f0:	02ff0063 	addi.d      	$sp, $sp, -64(0xfc0)
    14f4:	29c0e061 	st.d        	$ra, $sp, 56(0x38)
    14f8:	28c00084 	ld.d        	$a0, $a0, 0
    14fc:	28c060a6 	ld.d        	$a2, $a1, 24(0x18)
    1500:	28c080a7 	ld.d        	$a3, $a1, 32(0x20)
    1504:	28c0a0a8 	ld.d        	$a4, $a1, 40(0x28)
    1508:	28c000a9 	ld.d        	$a5, $a1, 0
    150c:	29c00064 	st.d        	$a0, $sp, 0
    1510:	28c040a4 	ld.d        	$a0, $a1, 16(0x10)
    1514:	28c020a5 	ld.d        	$a1, $a1, 8(0x8)
    1518:	29c08066 	st.d        	$a2, $sp, 32(0x20)
    151c:	29c02069 	st.d        	$a5, $sp, 8(0x8)
    1520:	29c0c068 	st.d        	$a4, $sp, 48(0x30)
    1524:	29c0a067 	st.d        	$a3, $sp, 40(0x28)
    1528:	02c02066 	addi.d      	$a2, $sp, 8(0x8)
    152c:	29c06064 	st.d        	$a0, $sp, 24(0x18)
    1530:	29c04065 	st.d        	$a1, $sp, 16(0x10)
    1534:	02c00064 	addi.d      	$a0, $sp, 0
    1538:	1c0000e5 	pcaddu12i   	$a1, 7(0x7)
    153c:	02ed40a5 	addi.d      	$a1, $a1, -1200(0xb50)
    1540:	5409f000 	bl          	2544(0x9f0)	# 1f30 <_ZN4core3fmt5write17h62bbab114cb7dd1fE>
    1544:	28c0e061 	ld.d        	$ra, $sp, 56(0x38)
    1548:	02c10063 	addi.d      	$sp, $sp, 64(0x40)
    154c:	4c000020 	jirl        	$zero, $ra, 0

0000000000001550 <_ZN50_$LT$$RF$mut$u20$W$u20$as$u20$core..fmt..Write$GT$9write_str17h5aa76b55a2f08223E.llvm.9183959168040577287>:
    1550:	02ffc063 	addi.d      	$sp, $sp, -16(0xff0)
    1554:	29c02061 	st.d        	$ra, $sp, 8(0x8)
    1558:	001500c7 	move        	$a3, $a2
    155c:	001500a6 	move        	$a2, $a1
    1560:	03810004 	ori         	$a0, $zero, 0x40
    1564:	03800405 	ori         	$a1, $zero, 0x1
    1568:	54024800 	bl          	584(0x248)	# 17b0 <do_syscall>
    156c:	28c02061 	ld.d        	$ra, $sp, 8(0x8)
    1570:	03800004 	ori         	$a0, $zero, 0x0
    1574:	02c04063 	addi.d      	$sp, $sp, 16(0x10)
    1578:	4c000020 	jirl        	$zero, $ra, 0
    157c:	00000000 	0x00000000

0000000000001580 <_ZN8user_lib7console6_print17hb99d1dc850c407dbE>:
    1580:	02ff0063 	addi.d      	$sp, $sp, -64(0xfc0)
    1584:	29c0e061 	st.d        	$ra, $sp, 56(0x38)
    1588:	02c02065 	addi.d      	$a1, $sp, 8(0x8)
    158c:	28c02086 	ld.d        	$a2, $a0, 8(0x8)
    1590:	28c08087 	ld.d        	$a3, $a0, 32(0x20)
    1594:	29c00065 	st.d        	$a1, $sp, 0
    1598:	28c00085 	ld.d        	$a1, $a0, 0
    159c:	29c04066 	st.d        	$a2, $sp, 16(0x10)
    15a0:	28c06086 	ld.d        	$a2, $a0, 24(0x18)
    15a4:	29c0a067 	st.d        	$a3, $sp, 40(0x28)
    15a8:	29c02065 	st.d        	$a1, $sp, 8(0x8)
    15ac:	28c04085 	ld.d        	$a1, $a0, 16(0x10)
    15b0:	28c0a084 	ld.d        	$a0, $a0, 40(0x28)
    15b4:	29c08066 	st.d        	$a2, $sp, 32(0x20)
    15b8:	02c02066 	addi.d      	$a2, $sp, 8(0x8)
    15bc:	29c0c064 	st.d        	$a0, $sp, 48(0x30)
    15c0:	29c06065 	st.d        	$a1, $sp, 24(0x18)
    15c4:	02c00064 	addi.d      	$a0, $sp, 0
    15c8:	1c0000e5 	pcaddu12i   	$a1, 7(0x7)
    15cc:	02eb00a5 	addi.d      	$a1, $a1, -1344(0xac0)
    15d0:	54096000 	bl          	2400(0x960)	# 1f30 <_ZN4core3fmt5write17h62bbab114cb7dd1fE>
    15d4:	44001080 	bnez        	$a0, 16(0x10)	# 15e4 <_ZN8user_lib7console6_print17hb99d1dc850c407dbE+0x64>
    15d8:	28c0e061 	ld.d        	$ra, $sp, 56(0x38)
    15dc:	02c10063 	addi.d      	$sp, $sp, 64(0x40)
    15e0:	4c000020 	jirl        	$zero, $ra, 0
    15e4:	1c0000a4 	pcaddu12i   	$a0, 5(0x5)
    15e8:	02eb7884 	addi.d      	$a0, $a0, -1314(0xade)
    15ec:	1c0000e7 	pcaddu12i   	$a3, 7(0x7)
    15f0:	02eb30e7 	addi.d      	$a3, $a3, -1332(0xacc)
    15f4:	0380ac05 	ori         	$a1, $zero, 0x2b
    15f8:	02c02066 	addi.d      	$a2, $sp, 8(0x8)
    15fc:	1c0000e8 	pcaddu12i   	$a4, 7(0x7)
    1600:	02eb7108 	addi.d      	$a4, $a4, -1316(0xadc)
    1604:	5427bc00 	bl          	10172(0x27bc)	# 3dc0 <_ZN4core6result13unwrap_failed17hc9198e820c2af379E>
    1608:	002a0000 	break       	0x0
    160c:	00000000 	0x00000000

0000000000001610 <_ZN8user_lib6thread4exit17h3c0c3887e4102bdbE>:
    1610:	02ffc063 	addi.d      	$sp, $sp, -16(0xff0)
    1614:	29c02061 	st.d        	$ra, $sp, 8(0x8)
    1618:	5401c800 	bl          	456(0x1c8)	# 17e0 <_ZN8user_lib7syscall8sys_exit17h2223c3fc30009d36E>
    161c:	002a0000 	break       	0x0

0000000000001620 <_ZN5alloc7raw_vec11finish_grow17h791b834ba1c4b556E.llvm.3295470307822326045>:
    1620:	02ff8063 	addi.d      	$sp, $sp, -32(0xfe0)
    1624:	29c06061 	st.d        	$ra, $sp, 24(0x18)
    1628:	29c04079 	st.d        	$s2, $sp, 16(0x10)
    162c:	29c02078 	st.d        	$s1, $sp, 8(0x8)
    1630:	29c00077 	st.d        	$s0, $sp, 0
    1634:	001500b8 	move        	$s1, $a1
    1638:	00150097 	move        	$s0, $a0
    163c:	40002cc0 	beqz        	$a2, 44(0x2c)	# 1668 <_ZN5alloc7raw_vec11finish_grow17h791b834ba1c4b556E.llvm.3295470307822326045+0x48>
    1640:	28c000e4 	ld.d        	$a0, $a3, 0
    1644:	001500d9 	move        	$s2, $a2
    1648:	40003080 	beqz        	$a0, 48(0x30)	# 1678 <_ZN5alloc7raw_vec11finish_grow17h791b834ba1c4b556E.llvm.3295470307822326045+0x58>
    164c:	28c020e5 	ld.d        	$a1, $a3, 8(0x8)
    1650:	400028a0 	beqz        	$a1, 40(0x28)	# 1678 <_ZN5alloc7raw_vec11finish_grow17h791b834ba1c4b556E.llvm.3295470307822326045+0x58>
    1654:	00150326 	move        	$a2, $s2
    1658:	00150307 	move        	$a3, $s1
    165c:	57fc17ff 	bl          	-1004(0xffffc14)	# 1270 <__rust_realloc>
    1660:	44004080 	bnez        	$a0, 64(0x40)	# 16a0 <_ZN5alloc7raw_vec11finish_grow17h791b834ba1c4b556E.llvm.3295470307822326045+0x80>
    1664:	50002800 	b           	40(0x28)	# 168c <_ZN5alloc7raw_vec11finish_grow17h791b834ba1c4b556E.llvm.3295470307822326045+0x6c>
    1668:	29c022f8 	st.d        	$s1, $s0, 8(0x8)
    166c:	03800404 	ori         	$a0, $zero, 0x1
    1670:	03800018 	ori         	$s1, $zero, 0x0
    1674:	50003400 	b           	52(0x34)	# 16a8 <_ZN5alloc7raw_vec11finish_grow17h791b834ba1c4b556E.llvm.3295470307822326045+0x88>
    1678:	40002700 	beqz        	$s1, 36(0x24)	# 169c <_ZN5alloc7raw_vec11finish_grow17h791b834ba1c4b556E.llvm.3295470307822326045+0x7c>
    167c:	00150304 	move        	$a0, $s1
    1680:	00150325 	move        	$a1, $s2
    1684:	57fbdfff 	bl          	-1060(0xffffbdc)	# 1260 <__rust_alloc>
    1688:	44001880 	bnez        	$a0, 24(0x18)	# 16a0 <_ZN5alloc7raw_vec11finish_grow17h791b834ba1c4b556E.llvm.3295470307822326045+0x80>
    168c:	29c022f8 	st.d        	$s1, $s0, 8(0x8)
    1690:	03800404 	ori         	$a0, $zero, 0x1
    1694:	00150338 	move        	$s1, $s2
    1698:	50001000 	b           	16(0x10)	# 16a8 <_ZN5alloc7raw_vec11finish_grow17h791b834ba1c4b556E.llvm.3295470307822326045+0x88>
    169c:	00150324 	move        	$a0, $s2
    16a0:	29c022e4 	st.d        	$a0, $s0, 8(0x8)
    16a4:	03800004 	ori         	$a0, $zero, 0x0
    16a8:	29c002e4 	st.d        	$a0, $s0, 0
    16ac:	29c042f8 	st.d        	$s1, $s0, 16(0x10)
    16b0:	28c00077 	ld.d        	$s0, $sp, 0
    16b4:	28c02078 	ld.d        	$s1, $sp, 8(0x8)
    16b8:	28c04079 	ld.d        	$s2, $sp, 16(0x10)
    16bc:	28c06061 	ld.d        	$ra, $sp, 24(0x18)
    16c0:	02c08063 	addi.d      	$sp, $sp, 32(0x20)
    16c4:	4c000020 	jirl        	$zero, $ra, 0

00000000000016c8 <_ZN5alloc7raw_vec19RawVec$LT$T$C$A$GT$7reserve21do_reserve_and_handle17hc2846c1f72ceb886E>:
    16c8:	02ff0063 	addi.d      	$sp, $sp, -64(0xfc0)
    16cc:	29c0e061 	st.d        	$ra, $sp, 56(0x38)
    16d0:	29c0c077 	st.d        	$s0, $sp, 48(0x30)
    16d4:	001098a6 	add.d       	$a2, $a1, $a2
    16d8:	6800bcc5 	bltu        	$a2, $a1, 188(0xbc)	# 1794 <_ZN5alloc7raw_vec19RawVec$LT$T$C$A$GT$7reserve21do_reserve_and_handle17hc2846c1f72ceb886E+0xcc>
    16dc:	00150097 	move        	$s0, $a0
    16e0:	28c02084 	ld.d        	$a0, $a0, 8(0x8)
    16e4:	00410485 	slli.d      	$a1, $a0, 0x1
    16e8:	001294c7 	sltu        	$a3, $a2, $a1
    16ec:	004080e7 	slli.w      	$a3, $a3, 0x0
    16f0:	00139cc6 	masknez     	$a2, $a2, $a3
    16f4:	00131ca5 	maskeqz     	$a1, $a1, $a3
    16f8:	001518a5 	or          	$a1, $a1, $a2
    16fc:	03801006 	ori         	$a2, $zero, 0x4
    1700:	001294c7 	sltu        	$a3, $a2, $a1
    1704:	004080e7 	slli.w      	$a3, $a3, 0x0
    1708:	00131ca5 	maskeqz     	$a1, $a1, $a3
    170c:	00139cc6 	masknez     	$a2, $a2, $a3
    1710:	001518a5 	or          	$a1, $a1, $a2
    1714:	00fb00a6 	bstrpick.d  	$a2, $a1, 0x3b, 0x0
    1718:	001594c6 	xor         	$a2, $a2, $a1
    171c:	004110a5 	slli.d      	$a1, $a1, 0x4
    1720:	024004c6 	sltui       	$a2, $a2, 1(0x1)
    1724:	00df00c6 	bstrpick.d  	$a2, $a2, 0x1f, 0x0
    1728:	00410cc6 	slli.d      	$a2, $a2, 0x3
    172c:	40002080 	beqz        	$a0, 32(0x20)	# 174c <_ZN5alloc7raw_vec19RawVec$LT$T$C$A$GT$7reserve21do_reserve_and_handle17hc2846c1f72ceb886E+0x84>
    1730:	28c002e7 	ld.d        	$a3, $s0, 0
    1734:	03802008 	ori         	$a4, $zero, 0x8
    1738:	00411084 	slli.d      	$a0, $a0, 0x4
    173c:	29c0a068 	st.d        	$a4, $sp, 40(0x28)
    1740:	29c08064 	st.d        	$a0, $sp, 32(0x20)
    1744:	29c06067 	st.d        	$a3, $sp, 24(0x18)
    1748:	50000c00 	b           	12(0xc)	# 1754 <_ZN5alloc7raw_vec19RawVec$LT$T$C$A$GT$7reserve21do_reserve_and_handle17hc2846c1f72ceb886E+0x8c>
    174c:	03800004 	ori         	$a0, $zero, 0x0
    1750:	29c06064 	st.d        	$a0, $sp, 24(0x18)
    1754:	02c00064 	addi.d      	$a0, $sp, 0
    1758:	02c06067 	addi.d      	$a3, $sp, 24(0x18)
    175c:	57fec7ff 	bl          	-316(0xffffec4)	# 1620 <_ZN5alloc7raw_vec11finish_grow17h791b834ba1c4b556E.llvm.3295470307822326045>
    1760:	28c00066 	ld.d        	$a2, $sp, 0
    1764:	28c02064 	ld.d        	$a0, $sp, 8(0x8)
    1768:	28c04065 	ld.d        	$a1, $sp, 16(0x10)
    176c:	03800407 	ori         	$a3, $zero, 0x1
    1770:	580020c7 	beq         	$a2, $a3, 32(0x20)	# 1790 <_ZN5alloc7raw_vec19RawVec$LT$T$C$A$GT$7reserve21do_reserve_and_handle17hc2846c1f72ceb886E+0xc8>
    1774:	29c002e4 	st.d        	$a0, $s0, 0
    1778:	004510a4 	srli.d      	$a0, $a1, 0x4
    177c:	28c0e061 	ld.d        	$ra, $sp, 56(0x38)
    1780:	29c022e4 	st.d        	$a0, $s0, 8(0x8)
    1784:	28c0c077 	ld.d        	$s0, $sp, 48(0x30)
    1788:	02c10063 	addi.d      	$sp, $sp, 64(0x40)
    178c:	4c000020 	jirl        	$zero, $ra, 0
    1790:	44000ca0 	bnez        	$a1, 12(0xc)	# 179c <_ZN5alloc7raw_vec19RawVec$LT$T$C$A$GT$7reserve21do_reserve_and_handle17hc2846c1f72ceb886E+0xd4>
    1794:	5405fc00 	bl          	1532(0x5fc)	# 1d90 <_ZN5alloc7raw_vec17capacity_overflow17h053e98b04e20e0c4E>
    1798:	002a0000 	break       	0x0
    179c:	54062c00 	bl          	1580(0x62c)	# 1dc8 <_ZN5alloc5alloc18handle_alloc_error17hd0a0deeafa1a8870E>
    17a0:	002a0000 	break       	0x0
	...

00000000000017b0 <do_syscall>:
    17b0:	0015008c 	move        	$t0, $a0
    17b4:	001500ad 	move        	$t1, $a1
    17b8:	001500ce 	move        	$t2, $a2
    17bc:	001500ef 	move        	$t3, $a3
    17c0:	0015018b 	move        	$a7, $t0
    17c4:	001501a4 	move        	$a0, $t1
    17c8:	001501c5 	move        	$a1, $t2
    17cc:	001501e6 	move        	$a2, $t3
    17d0:	002b0000 	syscall     	0x0
    17d4:	4c000020 	jirl        	$zero, $ra, 0

00000000000017d8 <_ZN8user_lib7syscall7syscall17he8fc79740e2c9a75E.llvm.8496259984962832953>:
    17d8:	53ffdbff 	b           	-40(0xfffffd8)	# 17b0 <do_syscall>
    17dc:	00000000 	0x00000000

00000000000017e0 <_ZN8user_lib7syscall8sys_exit17h2223c3fc30009d36E>:
    17e0:	02ff0063 	addi.d      	$sp, $sp, -64(0xfc0)
    17e4:	29c0e061 	st.d        	$ra, $sp, 56(0x38)
    17e8:	29c0c077 	st.d        	$s0, $sp, 48(0x30)
    17ec:	03800017 	ori         	$s0, $zero, 0x0
    17f0:	00408085 	slli.w      	$a1, $a0, 0x0
    17f4:	03817404 	ori         	$a0, $zero, 0x5d
    17f8:	001502e6 	move        	$a2, $s0
    17fc:	001502e7 	move        	$a3, $s0
    1800:	57ffdbff 	bl          	-40(0xfffffd8)	# 17d8 <_ZN8user_lib7syscall7syscall17he8fc79740e2c9a75E.llvm.8496259984962832953>
    1804:	29c0a077 	st.d        	$s0, $sp, 40(0x28)
    1808:	1c0000a4 	pcaddu12i   	$a0, 5(0x5)
    180c:	02e42084 	addi.d      	$a0, $a0, -1784(0x908)
    1810:	29c08064 	st.d        	$a0, $sp, 32(0x20)
    1814:	03800404 	ori         	$a0, $zero, 0x1
    1818:	29c04077 	st.d        	$s0, $sp, 16(0x10)
    181c:	29c02064 	st.d        	$a0, $sp, 8(0x8)
    1820:	1c0000e4 	pcaddu12i   	$a0, 7(0x7)
    1824:	02e34084 	addi.d      	$a0, $a0, -1840(0x8d0)
    1828:	29c00064 	st.d        	$a0, $sp, 0
    182c:	02c00064 	addi.d      	$a0, $sp, 0
    1830:	1c0000e5 	pcaddu12i   	$a1, 7(0x7)
    1834:	02e340a5 	addi.d      	$a1, $a1, -1840(0x8d0)
    1838:	54065800 	bl          	1624(0x658)	# 1e90 <_ZN4core9panicking9panic_fmt17h7deed37ee899fd65E>
    183c:	002a0000 	break       	0x0

0000000000001840 <memcpy>:
    1840:	400020c0 	beqz        	$a2, 32(0x20)	# 1860 <memcpy+0x20>
    1844:	00150087 	move        	$a3, $a0
    1848:	2a0000a8 	ld.bu       	$a4, $a1, 0
    184c:	02c004a5 	addi.d      	$a1, $a1, 1(0x1)
    1850:	02fffcc6 	addi.d      	$a2, $a2, -1(0xfff)
    1854:	290000e8 	st.b        	$a4, $a3, 0
    1858:	02c004e7 	addi.d      	$a3, $a3, 1(0x1)
    185c:	47ffecdf 	bnez        	$a2, -20(0x7fffec)	# 1848 <memcpy+0x8>
    1860:	4c000020 	jirl        	$zero, $ra, 0
    1864:	00000000 	0x00000000

0000000000001868 <_ZN4core3ptr80drop_in_place$LT$spin..mutex..MutexGuard$LT$buddy_system_allocator..Heap$GT$$GT$17hfe038294e5ea6a95E>:
    1868:	28c00085 	ld.d        	$a1, $a0, 0
    186c:	28c02084 	ld.d        	$a0, $a0, 8(0x8)
    1870:	38720000 	dbar        	0x0
    1874:	02c00484 	addi.d      	$a0, $a0, 1(0x1)
    1878:	29c000a4 	st.d        	$a0, $a1, 0
    187c:	4c000020 	jirl        	$zero, $ra, 0

0000000000001880 <_ZN22buddy_system_allocator4Heap4init17h2a00266a195ff3f7E>:
    1880:	02ffc063 	addi.d      	$sp, $sp, -16(0xff0)
    1884:	29c02061 	st.d        	$ra, $sp, 8(0x8)
    1888:	02c01ca7 	addi.d      	$a3, $a1, 7(0x7)
    188c:	02bfe009 	addi.w      	$a5, $zero, -8(0xff8)
    1890:	001094c5 	add.d       	$a1, $a2, $a1
    1894:	0014a4e8 	and         	$a4, $a3, $a5
    1898:	0014a4a5 	and         	$a1, $a1, $a5
    189c:	0012a0a6 	sltu        	$a2, $a1, $a4
    18a0:	5c00c0c0 	bne         	$a2, $zero, 192(0xc0)	# 1960 <_ZN22buddy_system_allocator4Heap4init17h2a00266a195ff3f7E+0xe0>
    18a4:	02c02106 	addi.d      	$a2, $a4, 8(0x8)
    18a8:	001298a6 	sltu        	$a2, $a1, $a2
    18ac:	58000cc0 	beq         	$a2, $zero, 12(0xc)	# 18b8 <_ZN22buddy_system_allocator4Heap4init17h2a00266a195ff3f7E+0x38>
    18b0:	03800006 	ori         	$a2, $zero, 0x0
    18b4:	50007c00 	b           	124(0x7c)	# 1930 <_ZN22buddy_system_allocator4Heap4init17h2a00266a195ff3f7E+0xb0>
    18b8:	03800009 	ori         	$a5, $zero, 0x0
    18bc:	0380fc0a 	ori         	$a6, $zero, 0x3f
    18c0:	0380040b 	ori         	$a7, $zero, 0x1
    18c4:	00150126 	move        	$a2, $a5
    18c8:	0011a0a7 	sub.d       	$a3, $a1, $a4
    18cc:	0011a12c 	sub.d       	$t0, $a5, $a4
    18d0:	000024e7 	clz.d       	$a3, $a3
    18d4:	0014b10c 	and         	$t0, $a4, $t0
    18d8:	004080e7 	slli.w      	$a3, $a3, 0x0
    18dc:	00111d47 	sub.w       	$a3, $a6, $a3
    18e0:	0340fce7 	andi        	$a3, $a3, 0x3f
    18e4:	00189d67 	sll.d       	$a3, $a7, $a3
    18e8:	0012b0ed 	sltu        	$t1, $a3, $t0
    18ec:	004081ad 	slli.w      	$t1, $t1, 0x0
    18f0:	0013b58c 	masknez     	$t0, $t0, $t1
    18f4:	001334e7 	maskeqz     	$a3, $a3, $t1
    18f8:	001530ec 	or          	$t0, $a3, $t0
    18fc:	00002d87 	ctz.d       	$a3, $t0
    1900:	004080ed 	slli.w      	$t1, $a3, 0x0
    1904:	024081ad 	sltui       	$t1, $t1, 32(0x20)
    1908:	580041a0 	beq         	$t1, $zero, 64(0x40)	# 1948 <_ZN22buddy_system_allocator4Heap4init17h2a00266a195ff3f7E+0xc8>
    190c:	00410ce7 	slli.d      	$a3, $a3, 0x3
    1910:	00109986 	add.d       	$a2, $t0, $a2
    1914:	380c1c8d 	ldx.d       	$t1, $a0, $a3
    1918:	29c0010d 	st.d        	$t1, $a4, 0
    191c:	381c1c88 	stx.d       	$a4, $a0, $a3
    1920:	0010a188 	add.d       	$a4, $t0, $a4
    1924:	02c02107 	addi.d      	$a3, $a4, 8(0x8)
    1928:	00129ca7 	sltu        	$a3, $a1, $a3
    192c:	5bff9ce0 	beq         	$a3, $zero, -100(0x3ff9c)	# 18c8 <_ZN22buddy_system_allocator4Heap4init17h2a00266a195ff3f7E+0x48>
    1930:	28c44085 	ld.d        	$a1, $a0, 272(0x110)
    1934:	28c02061 	ld.d        	$ra, $sp, 8(0x8)
    1938:	001098a5 	add.d       	$a1, $a1, $a2
    193c:	29c44085 	st.d        	$a1, $a0, 272(0x110)
    1940:	02c04063 	addi.d      	$sp, $sp, 16(0x10)
    1944:	4c000020 	jirl        	$zero, $ra, 0
    1948:	03808005 	ori         	$a1, $zero, 0x20
    194c:	1c0000c6 	pcaddu12i   	$a2, 6(0x6)
    1950:	02df90c6 	addi.d      	$a2, $a2, 2020(0x7e4)
    1954:	001500e4 	move        	$a0, $a3
    1958:	5404d000 	bl          	1232(0x4d0)	# 1e28 <_ZN4core9panicking18panic_bounds_check17h70a8c2dfc2459088E>
    195c:	002a0000 	break       	0x0
    1960:	1c000084 	pcaddu12i   	$a0, 4(0x4)
    1964:	02def884 	addi.d      	$a0, $a0, 1982(0x7be)
    1968:	03807805 	ori         	$a1, $zero, 0x1e
    196c:	1c0000c6 	pcaddu12i   	$a2, 6(0x6)
    1970:	02deb0c6 	addi.d      	$a2, $a2, 1964(0x7ac)
    1974:	54046c00 	bl          	1132(0x46c)	# 1de0 <_ZN4core9panicking5panic17h2978341b5c47dc6dE>
    1978:	002a0000 	break       	0x0
    197c:	00000000 	0x00000000

0000000000001980 <_ZN22buddy_system_allocator4Heap5alloc17ha7ff8650c47fb678E>:
    1980:	02ffc063 	addi.d      	$sp, $sp, -16(0xff0)
    1984:	29c02061 	st.d        	$ra, $sp, 8(0x8)
    1988:	03802007 	ori         	$a3, $zero, 0x8
    198c:	03800409 	ori         	$a5, $zero, 0x1
    1990:	001298ea 	sltu        	$a6, $a3, $a2
    1994:	00129528 	sltu        	$a4, $a5, $a1
    1998:	0040814a 	slli.w      	$a6, $a6, 0x0
    199c:	0013a8e7 	masknez     	$a3, $a3, $a6
    19a0:	001328c6 	maskeqz     	$a2, $a2, $a6
    19a4:	02fffcaa 	addi.d      	$a6, $a1, -1(0xfff)
    19a8:	0000254a 	clz.d       	$a6, $a6
    19ac:	00151cc6 	or          	$a2, $a2, $a3
    19b0:	00408107 	slli.w      	$a3, $a4, 0x0
    19b4:	00408148 	slli.w      	$a4, $a6, 0x0
    19b8:	02bffc0a 	addi.w      	$a6, $zero, -1(0xfff)
    19bc:	00192148 	srl.d       	$a4, $a6, $a4
    19c0:	0380800a 	ori         	$a6, $zero, 0x20
    19c4:	02c00508 	addi.d      	$a4, $a4, 1(0x1)
    19c8:	00131d08 	maskeqz     	$a4, $a4, $a3
    19cc:	00139d27 	masknez     	$a3, $a5, $a3
    19d0:	00151d07 	or          	$a3, $a4, $a3
    19d4:	00129cc8 	sltu        	$a4, $a2, $a3
    19d8:	00408108 	slli.w      	$a4, $a4, 0x0
    19dc:	0013a0c6 	masknez     	$a2, $a2, $a4
    19e0:	001320e7 	maskeqz     	$a3, $a3, $a4
    19e4:	001518e6 	or          	$a2, $a3, $a2
    19e8:	00002cc8 	ctz.d       	$a4, $a2
    19ec:	0012a147 	sltu        	$a3, $a6, $a4
    19f0:	002d110b 	alsl.d      	$a7, $a4, $a0, 0x3
    19f4:	0015010f 	move        	$t3, $a4
    19f8:	004080e7 	slli.w      	$a3, $a3, 0x0
    19fc:	02ffc171 	addi.d      	$t5, $a7, -16(0xff0)
    1a00:	00131d0c 	maskeqz     	$t0, $a4, $a3
    1a04:	00139d47 	masknez     	$a3, $a6, $a3
    1a08:	00151d90 	or          	$t4, $t0, $a3
    1a0c:	0040810c 	slli.w      	$t0, $a4, 0x0
    1a10:	03800007 	ori         	$a3, $zero, 0x0
    1a14:	5800a20f 	beq         	$t4, $t3, 160(0xa0)	# 1ab4 <_ZN22buddy_system_allocator4Heap5alloc17ha7ff8650c47fb678E+0x134>
    1a18:	28c0422e 	ld.d        	$t2, $t5, 16(0x10)
    1a1c:	02c0222d 	addi.d      	$t1, $t5, 8(0x8)
    1a20:	02c005ef 	addi.d      	$t3, $t3, 1(0x1)
    1a24:	001501b1 	move        	$t5, $t1
    1a28:	43ffeddf 	beqz        	$t2, -20(0x7fffec)	# 1a14 <_ZN22buddy_system_allocator4Heap5alloc17ha7ff8650c47fb678E+0x94>
    1a2c:	02fffde7 	addi.d      	$a3, $t3, -1(0xfff)
    1a30:	6c005107 	bgeu        	$a4, $a3, 80(0x50)	# 1a80 <_ZN22buddy_system_allocator4Heap5alloc17ha7ff8650c47fb678E+0x100>
    1a34:	02c00507 	addi.d      	$a3, $a4, 1(0x1)
    1a38:	03807c10 	ori         	$t4, $zero, 0x1f
    1a3c:	02fffdf1 	addi.d      	$t5, $t3, -1(0xfff)
    1a40:	6c00862a 	bgeu        	$t5, $a6, 132(0x84)	# 1ac4 <_ZN22buddy_system_allocator4Heap5alloc17ha7ff8650c47fb678E+0x144>
    1a44:	28c001d2 	ld.d        	$t6, $t2, 0
    1a48:	02fff9ef 	addi.d      	$t3, $t3, -2(0xffe)
    1a4c:	29c021b2 	st.d        	$t6, $t1, 8(0x8)
    1a50:	0012be12 	sltu        	$t6, $t4, $t3
    1a54:	5c008a40 	bne         	$t6, $zero, 136(0x88)	# 1adc <_ZN22buddy_system_allocator4Heap5alloc17ha7ff8650c47fb678E+0x15c>
    1a58:	28c001b2 	ld.d        	$t6, $t1, 0
    1a5c:	004081ef 	slli.w      	$t3, $t3, 0x0
    1a60:	0018bd2f 	sll.d       	$t3, $a5, $t3
    1a64:	381c39f2 	stx.d       	$t6, $t3, $t2
    1a68:	0010b9ef 	add.d       	$t3, $t3, $t2
    1a6c:	29c001cf 	st.d        	$t3, $t2, 0
    1a70:	29c001ae 	st.d        	$t2, $t1, 0
    1a74:	02ffe1ad 	addi.d      	$t1, $t1, -8(0xff8)
    1a78:	0015022f 	move        	$t3, $t5
    1a7c:	6bffc0f1 	bltu        	$a3, $t5, -64(0x3ffc0)	# 1a3c <_ZN22buddy_system_allocator4Heap5alloc17ha7ff8650c47fb678E+0xbc>
    1a80:	03808007 	ori         	$a3, $zero, 0x20
    1a84:	6c007187 	bgeu        	$t0, $a3, 112(0x70)	# 1af4 <_ZN22buddy_system_allocator4Heap5alloc17ha7ff8650c47fb678E+0x174>
    1a88:	00410d07 	slli.d      	$a3, $a4, 0x3
    1a8c:	380c1c87 	ldx.d       	$a3, $a0, $a3
    1a90:	40007ce0 	beqz        	$a3, 124(0x7c)	# 1b0c <_ZN22buddy_system_allocator4Heap5alloc17ha7ff8650c47fb678E+0x18c>
    1a94:	28c000e8 	ld.d        	$a4, $a3, 0
    1a98:	29c00168 	st.d        	$a4, $a7, 0
    1a9c:	28c40088 	ld.d        	$a4, $a0, 256(0x100)
    1aa0:	00109505 	add.d       	$a1, $a4, $a1
    1aa4:	29c40085 	st.d        	$a1, $a0, 256(0x100)
    1aa8:	28c42085 	ld.d        	$a1, $a0, 264(0x108)
    1aac:	001098a5 	add.d       	$a1, $a1, $a2
    1ab0:	29c42085 	st.d        	$a1, $a0, 264(0x108)
    1ab4:	28c02061 	ld.d        	$ra, $sp, 8(0x8)
    1ab8:	001500e4 	move        	$a0, $a3
    1abc:	02c04063 	addi.d      	$sp, $sp, 16(0x10)
    1ac0:	4c000020 	jirl        	$zero, $ra, 0
    1ac4:	02fffde4 	addi.d      	$a0, $t3, -1(0xfff)
    1ac8:	03808005 	ori         	$a1, $zero, 0x20
    1acc:	1c0000c6 	pcaddu12i   	$a2, 6(0x6)
    1ad0:	02d9f0c6 	addi.d      	$a2, $a2, 1660(0x67c)
    1ad4:	54035400 	bl          	852(0x354)	# 1e28 <_ZN4core9panicking18panic_bounds_check17h70a8c2dfc2459088E>
    1ad8:	002a0000 	break       	0x0
    1adc:	02bffc04 	addi.w      	$a0, $zero, -1(0xfff)
    1ae0:	03808005 	ori         	$a1, $zero, 0x20
    1ae4:	1c0000c6 	pcaddu12i   	$a2, 6(0x6)
    1ae8:	02d9f0c6 	addi.d      	$a2, $a2, 1660(0x67c)
    1aec:	54033c00 	bl          	828(0x33c)	# 1e28 <_ZN4core9panicking18panic_bounds_check17h70a8c2dfc2459088E>
    1af0:	002a0000 	break       	0x0
    1af4:	03808005 	ori         	$a1, $zero, 0x20
    1af8:	1c0000c6 	pcaddu12i   	$a2, 6(0x6)
    1afc:	02da00c6 	addi.d      	$a2, $a2, 1664(0x680)
    1b00:	00150104 	move        	$a0, $a4
    1b04:	54032400 	bl          	804(0x324)	# 1e28 <_ZN4core9panicking18panic_bounds_check17h70a8c2dfc2459088E>
    1b08:	002a0000 	break       	0x0
    1b0c:	1c000084 	pcaddu12i   	$a0, 4(0x4)
    1b10:	02da5884 	addi.d      	$a0, $a0, 1686(0x696)
    1b14:	0380a005 	ori         	$a1, $zero, 0x28
    1b18:	1c0000c6 	pcaddu12i   	$a2, 6(0x6)
    1b1c:	02d9e0c6 	addi.d      	$a2, $a2, 1656(0x678)
    1b20:	542bd000 	bl          	11216(0x2bd0)	# 46f0 <_ZN4core6option13expect_failed17ha3fd878ee99bb576E>
    1b24:	002a0000 	break       	0x0

0000000000001b28 <_ZN22buddy_system_allocator4Heap7dealloc17h3c432c0f938c1727E>:
    1b28:	02ffc063 	addi.d      	$sp, $sp, -16(0xff0)
    1b2c:	29c02061 	st.d        	$ra, $sp, 8(0x8)
    1b30:	0380200a 	ori         	$a6, $zero, 0x8
    1b34:	03800408 	ori         	$a4, $zero, 0x1
    1b38:	00129d4b 	sltu        	$a7, $a6, $a3
    1b3c:	00129909 	sltu        	$a5, $a4, $a2
    1b40:	0040816b 	slli.w      	$a7, $a7, 0x0
    1b44:	00408129 	slli.w      	$a5, $a5, 0x0
    1b48:	0013ad4a 	masknez     	$a6, $a6, $a7
    1b4c:	00132ce7 	maskeqz     	$a3, $a3, $a7
    1b50:	02bffc0b 	addi.w      	$a7, $zero, -1(0xfff)
    1b54:	001528e7 	or          	$a3, $a3, $a6
    1b58:	02fffcca 	addi.d      	$a6, $a2, -1(0xfff)
    1b5c:	0000254a 	clz.d       	$a6, $a6
    1b60:	0040814a 	slli.w      	$a6, $a6, 0x0
    1b64:	0019296a 	srl.d       	$a6, $a7, $a6
    1b68:	02c0054a 	addi.d      	$a6, $a6, 1(0x1)
    1b6c:	0013254a 	maskeqz     	$a6, $a6, $a5
    1b70:	0013a509 	masknez     	$a5, $a4, $a5
    1b74:	00152549 	or          	$a5, $a6, $a5
    1b78:	0012a4ea 	sltu        	$a6, $a3, $a5
    1b7c:	0040814a 	slli.w      	$a6, $a6, 0x0
    1b80:	0013a8e7 	masknez     	$a3, $a3, $a6
    1b84:	00132929 	maskeqz     	$a5, $a5, $a6
    1b88:	00151d29 	or          	$a5, $a5, $a3
    1b8c:	00002d27 	ctz.d       	$a3, $a5
    1b90:	004080ea 	slli.w      	$a6, $a3, 0x0
    1b94:	0240814a 	sltui       	$a6, $a6, 32(0x20)
    1b98:	5800e540 	beq         	$a6, $zero, 228(0xe4)	# 1c7c <_ZN22buddy_system_allocator4Heap7dealloc17h3c432c0f938c1727E+0x154>
    1b9c:	00410cea 	slli.d      	$a6, $a3, 0x3
    1ba0:	380c288b 	ldx.d       	$a7, $a0, $a6
    1ba4:	29c000ab 	st.d        	$a7, $a1, 0
    1ba8:	381c2885 	stx.d       	$a1, $a0, $a6
    1bac:	0340fcea 	andi        	$a6, $a3, 0x3f
    1bb0:	002d10eb 	alsl.d      	$a7, $a3, $a0, 0x3
    1bb4:	0018a90a 	sll.d       	$a6, $a4, $a6
    1bb8:	0015954c 	xor         	$t0, $a6, $a1
    1bbc:	03807c0a 	ori         	$a6, $zero, 0x1f
    1bc0:	001500ae 	move        	$t2, $a1
    1bc4:	001500af 	move        	$t3, $a1
    1bc8:	0015016d 	move        	$t1, $a7
    1bcc:	58001985 	beq         	$t0, $a1, 24(0x18)	# 1be4 <_ZN22buddy_system_allocator4Heap7dealloc17h3c432c0f938c1727E+0xbc>
    1bd0:	001501cd 	move        	$t1, $t2
    1bd4:	28c001ce 	ld.d        	$t2, $t2, 0
    1bd8:	400069c0 	beqz        	$t2, 104(0x68)	# 1c40 <_ZN22buddy_system_allocator4Heap7dealloc17h3c432c0f938c1727E+0x118>
    1bdc:	5ffff58e 	bne         	$t0, $t2, -12(0x3fff4)	# 1bd0 <_ZN22buddy_system_allocator4Heap7dealloc17h3c432c0f938c1727E+0xa8>
    1be0:	0015018f 	move        	$t3, $t0
    1be4:	28c001ee 	ld.d        	$t2, $t3, 0
    1be8:	29c001ae 	st.d        	$t2, $t1, 0
    1bec:	28c0016d 	ld.d        	$t1, $a7, 0
    1bf0:	40000da0 	beqz        	$t1, 12(0xc)	# 1bfc <_ZN22buddy_system_allocator4Heap7dealloc17h3c432c0f938c1727E+0xd4>
    1bf4:	28c001ad 	ld.d        	$t1, $t1, 0
    1bf8:	29c0016d 	st.d        	$t1, $a7, 0
    1bfc:	0012958b 	sltu        	$a7, $t0, $a1
    1c00:	0040816b 	slli.w      	$a7, $a7, 0x0
    1c04:	0013aca5 	masknez     	$a1, $a1, $a7
    1c08:	00132d8b 	maskeqz     	$a7, $t0, $a7
    1c0c:	580058ea 	beq         	$a3, $a6, 88(0x58)	# 1c64 <_ZN22buddy_system_allocator4Heap7dealloc17h3c432c0f938c1727E+0x13c>
    1c10:	02c004e7 	addi.d      	$a3, $a3, 1(0x1)
    1c14:	00151565 	or          	$a1, $a7, $a1
    1c18:	00410ceb 	slli.d      	$a7, $a3, 0x3
    1c1c:	380c2c8c 	ldx.d       	$t0, $a0, $a7
    1c20:	29c000ac 	st.d        	$t0, $a1, 0
    1c24:	004080ec 	slli.w      	$t0, $a3, 0x0
    1c28:	381c2c85 	stx.d       	$a1, $a0, $a7
    1c2c:	002d10eb 	alsl.d      	$a7, $a3, $a0, 0x3
    1c30:	0340fd8c 	andi        	$t0, $t0, 0x3f
    1c34:	0018b10c 	sll.d       	$t0, $a4, $t0
    1c38:	0015958c 	xor         	$t0, $t0, $a1
    1c3c:	47ff84bf 	bnez        	$a1, -124(0x7fff84)	# 1bc0 <_ZN22buddy_system_allocator4Heap7dealloc17h3c432c0f938c1727E+0x98>
    1c40:	28c40085 	ld.d        	$a1, $a0, 256(0x100)
    1c44:	28c02061 	ld.d        	$ra, $sp, 8(0x8)
    1c48:	001198a5 	sub.d       	$a1, $a1, $a2
    1c4c:	29c40085 	st.d        	$a1, $a0, 256(0x100)
    1c50:	28c42085 	ld.d        	$a1, $a0, 264(0x108)
    1c54:	0011a4a5 	sub.d       	$a1, $a1, $a5
    1c58:	29c42085 	st.d        	$a1, $a0, 264(0x108)
    1c5c:	02c04063 	addi.d      	$sp, $sp, 16(0x10)
    1c60:	4c000020 	jirl        	$zero, $ra, 0
    1c64:	03808004 	ori         	$a0, $zero, 0x20
    1c68:	1c0000c6 	pcaddu12i   	$a2, 6(0x6)
    1c6c:	02d560c6 	addi.d      	$a2, $a2, 1368(0x558)
    1c70:	00150085 	move        	$a1, $a0
    1c74:	5401b400 	bl          	436(0x1b4)	# 1e28 <_ZN4core9panicking18panic_bounds_check17h70a8c2dfc2459088E>
    1c78:	002a0000 	break       	0x0
    1c7c:	03808005 	ori         	$a1, $zero, 0x20
    1c80:	1c0000c6 	pcaddu12i   	$a2, 6(0x6)
    1c84:	02d4a0c6 	addi.d      	$a2, $a2, 1320(0x528)
    1c88:	001500e4 	move        	$a0, $a3
    1c8c:	54019c00 	bl          	412(0x19c)	# 1e28 <_ZN4core9panicking18panic_bounds_check17h70a8c2dfc2459088E>
    1c90:	002a0000 	break       	0x0
    1c94:	00000000 	0x00000000

0000000000001c98 <_ZN78_$LT$buddy_system_allocator..LockedHeap$u20$as$u20$core..ops..deref..Deref$GT$5deref17hc1416cd51f5c3374E>:
    1c98:	4c000020 	jirl        	$zero, $ra, 0
    1c9c:	00000000 	0x00000000

0000000000001ca0 <_ZN87_$LT$buddy_system_allocator..LockedHeap$u20$as$u20$core..alloc..global..GlobalAlloc$GT$5alloc17h67eb8332efa0c74fE>:
    1ca0:	02ff4063 	addi.d      	$sp, $sp, -48(0xfd0)
    1ca4:	29c0a061 	st.d        	$ra, $sp, 40(0x28)
    1ca8:	29c08078 	st.d        	$s1, $sp, 32(0x20)
    1cac:	29c06077 	st.d        	$s0, $sp, 24(0x18)
    1cb0:	03800407 	ori         	$a3, $zero, 0x1
    1cb4:	02c02098 	addi.d      	$s1, $a0, 8(0x8)
    1cb8:	386a9c97 	amadd_db.d  	$s0, $a3, $a0
    1cbc:	28c00307 	ld.d        	$a3, $s1, 0
    1cc0:	38720000 	dbar        	0x0
    1cc4:	5ffff8f7 	bne         	$a3, $s0, -8(0x3fff8)	# 1cbc <_ZN87_$LT$buddy_system_allocator..LockedHeap$u20$as$u20$core..alloc..global..GlobalAlloc$GT$5alloc17h67eb8332efa0c74fE+0x1c>
    1cc8:	02c04084 	addi.d      	$a0, $a0, 16(0x10)
    1ccc:	29c02077 	st.d        	$s0, $sp, 8(0x8)
    1cd0:	29c00078 	st.d        	$s1, $sp, 0
    1cd4:	29c04064 	st.d        	$a0, $sp, 16(0x10)
    1cd8:	57fcabff 	bl          	-856(0xffffca8)	# 1980 <_ZN22buddy_system_allocator4Heap5alloc17ha7ff8650c47fb678E>
    1cdc:	02c006e5 	addi.d      	$a1, $s0, 1(0x1)
    1ce0:	38720000 	dbar        	0x0
    1ce4:	29c00305 	st.d        	$a1, $s1, 0
    1ce8:	28c06077 	ld.d        	$s0, $sp, 24(0x18)
    1cec:	28c08078 	ld.d        	$s1, $sp, 32(0x20)
    1cf0:	28c0a061 	ld.d        	$ra, $sp, 40(0x28)
    1cf4:	02c0c063 	addi.d      	$sp, $sp, 48(0x30)
    1cf8:	4c000020 	jirl        	$zero, $ra, 0
    1cfc:	00150097 	move        	$s0, $a0
    1d00:	02c00064 	addi.d      	$a0, $sp, 0
    1d04:	57fb67ff 	bl          	-1180(0xffffb64)	# 1868 <_ZN4core3ptr80drop_in_place$LT$spin..mutex..MutexGuard$LT$buddy_system_allocator..Heap$GT$$GT$17hfe038294e5ea6a95E>
    1d08:	001502e4 	move        	$a0, $s0
    1d0c:	57f627ff 	bl          	-2524(0xffff624)	# 1330 <_Unwind_Resume>
    1d10:	002a0000 	break       	0x0
    1d14:	00000000 	0x00000000

0000000000001d18 <_ZN87_$LT$buddy_system_allocator..LockedHeap$u20$as$u20$core..alloc..global..GlobalAlloc$GT$7dealloc17he1686c51cb18a445E>:
    1d18:	02ff4063 	addi.d      	$sp, $sp, -48(0xfd0)
    1d1c:	29c0a061 	st.d        	$ra, $sp, 40(0x28)
    1d20:	29c08078 	st.d        	$s1, $sp, 32(0x20)
    1d24:	29c06077 	st.d        	$s0, $sp, 24(0x18)
    1d28:	03800408 	ori         	$a4, $zero, 0x1
    1d2c:	02c02098 	addi.d      	$s1, $a0, 8(0x8)
    1d30:	386aa097 	amadd_db.d  	$s0, $a4, $a0
    1d34:	28c00308 	ld.d        	$a4, $s1, 0
    1d38:	38720000 	dbar        	0x0
    1d3c:	5ffff917 	bne         	$a4, $s0, -8(0x3fff8)	# 1d34 <_ZN87_$LT$buddy_system_allocator..LockedHeap$u20$as$u20$core..alloc..global..GlobalAlloc$GT$7dealloc17he1686c51cb18a445E+0x1c>
    1d40:	02c04084 	addi.d      	$a0, $a0, 16(0x10)
    1d44:	29c02077 	st.d        	$s0, $sp, 8(0x8)
    1d48:	29c00078 	st.d        	$s1, $sp, 0
    1d4c:	29c04064 	st.d        	$a0, $sp, 16(0x10)
    1d50:	57fddbff 	bl          	-552(0xffffdd8)	# 1b28 <_ZN22buddy_system_allocator4Heap7dealloc17h3c432c0f938c1727E>
    1d54:	02c006e4 	addi.d      	$a0, $s0, 1(0x1)
    1d58:	38720000 	dbar        	0x0
    1d5c:	29c00304 	st.d        	$a0, $s1, 0
    1d60:	28c06077 	ld.d        	$s0, $sp, 24(0x18)
    1d64:	28c08078 	ld.d        	$s1, $sp, 32(0x20)
    1d68:	28c0a061 	ld.d        	$ra, $sp, 40(0x28)
    1d6c:	02c0c063 	addi.d      	$sp, $sp, 48(0x30)
    1d70:	4c000020 	jirl        	$zero, $ra, 0
    1d74:	00150097 	move        	$s0, $a0
    1d78:	02c00064 	addi.d      	$a0, $sp, 0
    1d7c:	57faefff 	bl          	-1300(0xffffaec)	# 1868 <_ZN4core3ptr80drop_in_place$LT$spin..mutex..MutexGuard$LT$buddy_system_allocator..Heap$GT$$GT$17hfe038294e5ea6a95E>
    1d80:	001502e4 	move        	$a0, $s0
    1d84:	57f5afff 	bl          	-2644(0xffff5ac)	# 1330 <_Unwind_Resume>
    1d88:	002a0000 	break       	0x0
    1d8c:	00000000 	0x00000000

0000000000001d90 <_ZN5alloc7raw_vec17capacity_overflow17h053e98b04e20e0c4E>:
    1d90:	02ffc063 	addi.d      	$sp, $sp, -16(0xff0)
    1d94:	29c02061 	st.d        	$ra, $sp, 8(0x8)
    1d98:	1c000084 	pcaddu12i   	$a0, 4(0x4)
    1d9c:	02d0c884 	addi.d      	$a0, $a0, 1074(0x432)
    1da0:	03804405 	ori         	$a1, $zero, 0x11
    1da4:	1c0000c6 	pcaddu12i   	$a2, 6(0x6)
    1da8:	02d0f0c6 	addi.d      	$a2, $a2, 1084(0x43c)
    1dac:	54003400 	bl          	52(0x34)	# 1de0 <_ZN4core9panicking5panic17h2978341b5c47dc6dE>
    1db0:	002a0000 	break       	0x0
    1db4:	00000000 	0x00000000

0000000000001db8 <__rg_oom>:
    1db8:	02ffc063 	addi.d      	$sp, $sp, -16(0xff0)
    1dbc:	29c02061 	st.d        	$ra, $sp, 8(0x8)
    1dc0:	57f513ff 	bl          	-2800(0xffff510)	# 12d0 <rust_oom>
    1dc4:	002a0000 	break       	0x0

0000000000001dc8 <_ZN5alloc5alloc18handle_alloc_error17hd0a0deeafa1a8870E>:
    1dc8:	02ffc063 	addi.d      	$sp, $sp, -16(0xff0)
    1dcc:	29c02061 	st.d        	$ra, $sp, 8(0x8)
    1dd0:	57f4abff 	bl          	-2904(0xffff4a8)	# 1278 <__rust_alloc_error_handler>
    1dd4:	002a0000 	break       	0x0

0000000000001dd8 <_ZN4core3ptr88drop_in_place$LT$core..panic..panic_info..PanicInfo..internal_constructor..NoPayload$GT$17h371d88bdde94a61aE>:
    1dd8:	4c000020 	jirl        	$zero, $ra, 0
    1ddc:	00000000 	0x00000000

0000000000001de0 <_ZN4core9panicking5panic17h2978341b5c47dc6dE>:
    1de0:	02fec063 	addi.d      	$sp, $sp, -80(0xfb0)
    1de4:	29c12061 	st.d        	$ra, $sp, 72(0x48)
    1de8:	1c000088 	pcaddu12i   	$a4, 4(0x4)
    1dec:	02d04108 	addi.d      	$a4, $a4, 1040(0x410)
    1df0:	03800009 	ori         	$a5, $zero, 0x0
    1df4:	03800407 	ori         	$a3, $zero, 0x1
    1df8:	29c10065 	st.d        	$a1, $sp, 64(0x40)
    1dfc:	29c0e064 	st.d        	$a0, $sp, 56(0x38)
    1e00:	02c02064 	addi.d      	$a0, $sp, 8(0x8)
    1e04:	001500c5 	move        	$a1, $a2
    1e08:	29c0c069 	st.d        	$a5, $sp, 48(0x30)
    1e0c:	29c0a068 	st.d        	$a4, $sp, 40(0x28)
    1e10:	29c06069 	st.d        	$a5, $sp, 24(0x18)
    1e14:	29c04067 	st.d        	$a3, $sp, 16(0x10)
    1e18:	02c0e067 	addi.d      	$a3, $sp, 56(0x38)
    1e1c:	29c02067 	st.d        	$a3, $sp, 8(0x8)
    1e20:	54007000 	bl          	112(0x70)	# 1e90 <_ZN4core9panicking9panic_fmt17h7deed37ee899fd65E>
    1e24:	002a0000 	break       	0x0

0000000000001e28 <_ZN4core9panicking18panic_bounds_check17h70a8c2dfc2459088E>:
    1e28:	02fe4063 	addi.d      	$sp, $sp, -112(0xf90)
    1e2c:	29c1a061 	st.d        	$ra, $sp, 104(0x68)
    1e30:	29c04065 	st.d        	$a1, $sp, 16(0x10)
    1e34:	29c02064 	st.d        	$a0, $sp, 8(0x8)
    1e38:	1c0000c4 	pcaddu12i   	$a0, 6(0x6)
    1e3c:	02cf8084 	addi.d      	$a0, $a0, 992(0x3e0)
    1e40:	03800808 	ori         	$a4, $zero, 0x2
    1e44:	03800005 	ori         	$a1, $zero, 0x0
    1e48:	02c12067 	addi.d      	$a3, $sp, 72(0x48)
    1e4c:	29c10068 	st.d        	$a4, $sp, 64(0x40)
    1e50:	29c0e067 	st.d        	$a3, $sp, 56(0x38)
    1e54:	29c0a065 	st.d        	$a1, $sp, 40(0x28)
    1e58:	29c08068 	st.d        	$a4, $sp, 32(0x20)
    1e5c:	29c06064 	st.d        	$a0, $sp, 24(0x18)
    1e60:	1c0000e4 	pcaddu12i   	$a0, 7(0x7)
    1e64:	28e48084 	ld.d        	$a0, $a0, -1760(0x920)
    1e68:	02c02065 	addi.d      	$a1, $sp, 8(0x8)
    1e6c:	29c18064 	st.d        	$a0, $sp, 96(0x60)
    1e70:	29c16065 	st.d        	$a1, $sp, 88(0x58)
    1e74:	29c14064 	st.d        	$a0, $sp, 80(0x50)
    1e78:	02c04064 	addi.d      	$a0, $sp, 16(0x10)
    1e7c:	001500c5 	move        	$a1, $a2
    1e80:	29c12064 	st.d        	$a0, $sp, 72(0x48)
    1e84:	02c06064 	addi.d      	$a0, $sp, 24(0x18)
    1e88:	54000800 	bl          	8(0x8)	# 1e90 <_ZN4core9panicking9panic_fmt17h7deed37ee899fd65E>
    1e8c:	002a0000 	break       	0x0

0000000000001e90 <_ZN4core9panicking9panic_fmt17h7deed37ee899fd65E>:
    1e90:	02ff4063 	addi.d      	$sp, $sp, -48(0xfd0)
    1e94:	29c0a061 	st.d        	$ra, $sp, 40(0x28)
    1e98:	29c08065 	st.d        	$a1, $sp, 32(0x20)
    1e9c:	29c06064 	st.d        	$a0, $sp, 24(0x18)
    1ea0:	1c0000c4 	pcaddu12i   	$a0, 6(0x6)
    1ea4:	02cd6084 	addi.d      	$a0, $a0, 856(0x358)
    1ea8:	29c04064 	st.d        	$a0, $sp, 16(0x10)
    1eac:	1c000084 	pcaddu12i   	$a0, 4(0x4)
    1eb0:	02cd3084 	addi.d      	$a0, $a0, 844(0x34c)
    1eb4:	29c02064 	st.d        	$a0, $sp, 8(0x8)
    1eb8:	02c02064 	addi.d      	$a0, $sp, 8(0x8)
    1ebc:	5431f400 	bl          	12788(0x31f4)	# 50b0 <rust_begin_unwind>
    1ec0:	002a0000 	break       	0x0
    1ec4:	00000000 	0x00000000

0000000000001ec8 <_ZN4core3ops8function6FnOnce9call_once17hccf060935f5e0e09E.llvm.16997549962013311943>:
    1ec8:	28c00084 	ld.d        	$a0, $a0, 0
    1ecc:	50000000 	b           	0	# 1ecc <_ZN4core3ops8function6FnOnce9call_once17hccf060935f5e0e09E.llvm.16997549962013311943+0x4>

0000000000001ed0 <_ZN57_$LT$core..fmt..Arguments$u20$as$u20$core..fmt..Debug$GT$3fmt17hbd8c37d5f357b60eE>:
    1ed0:	02ff0063 	addi.d      	$sp, $sp, -64(0xfc0)
    1ed4:	29c0e061 	st.d        	$ra, $sp, 56(0x38)
    1ed8:	28c00086 	ld.d        	$a2, $a0, 0
    1edc:	28c02088 	ld.d        	$a4, $a0, 8(0x8)
    1ee0:	28c0a0a7 	ld.d        	$a3, $a1, 40(0x28)
    1ee4:	28c080a5 	ld.d        	$a1, $a1, 32(0x20)
    1ee8:	28c08089 	ld.d        	$a5, $a0, 32(0x20)
    1eec:	29c04068 	st.d        	$a4, $sp, 16(0x10)
    1ef0:	29c02066 	st.d        	$a2, $sp, 8(0x8)
    1ef4:	28c04086 	ld.d        	$a2, $a0, 16(0x10)
    1ef8:	28c06088 	ld.d        	$a4, $a0, 24(0x18)
    1efc:	28c0a084 	ld.d        	$a0, $a0, 40(0x28)
    1f00:	29c0a069 	st.d        	$a5, $sp, 40(0x28)
    1f04:	29c0c064 	st.d        	$a0, $sp, 48(0x30)
    1f08:	29c06066 	st.d        	$a2, $sp, 24(0x18)
    1f0c:	001500a4 	move        	$a0, $a1
    1f10:	02c02066 	addi.d      	$a2, $sp, 8(0x8)
    1f14:	001500e5 	move        	$a1, $a3
    1f18:	29c08068 	st.d        	$a4, $sp, 32(0x20)
    1f1c:	54001400 	bl          	20(0x14)	# 1f30 <_ZN4core3fmt5write17h62bbab114cb7dd1fE>
    1f20:	28c0e061 	ld.d        	$ra, $sp, 56(0x38)
    1f24:	02c10063 	addi.d      	$sp, $sp, 64(0x40)
    1f28:	4c000020 	jirl        	$zero, $ra, 0
    1f2c:	00000000 	0x00000000

0000000000001f30 <_ZN4core3fmt5write17h62bbab114cb7dd1fE>:
    1f30:	02fdc063 	addi.d      	$sp, $sp, -144(0xf70)
    1f34:	29c22061 	st.d        	$ra, $sp, 136(0x88)
    1f38:	29c2007f 	st.d        	$s8, $sp, 128(0x80)
    1f3c:	29c1e07e 	st.d        	$s7, $sp, 120(0x78)
    1f40:	29c1c07d 	st.d        	$s6, $sp, 112(0x70)
    1f44:	29c1a07c 	st.d        	$s5, $sp, 104(0x68)
    1f48:	29c1807b 	st.d        	$s4, $sp, 96(0x60)
    1f4c:	29c1607a 	st.d        	$s3, $sp, 88(0x58)
    1f50:	29c14079 	st.d        	$s2, $sp, 80(0x50)
    1f54:	29c12078 	st.d        	$s1, $sp, 72(0x48)
    1f58:	29c10077 	st.d        	$s0, $sp, 64(0x40)
    1f5c:	001500d7 	move        	$s0, $a2
    1f60:	03800c06 	ori         	$a2, $zero, 0x3
    1f64:	03800019 	ori         	$s2, $zero, 0x0
    1f68:	2900e066 	st.b        	$a2, $sp, 56(0x38)
    1f6c:	29c0a065 	st.d        	$a1, $sp, 40(0x28)
    1f70:	29c08064 	st.d        	$a0, $sp, 32(0x20)
    1f74:	00150324 	move        	$a0, $s2
    1f78:	29c04079 	st.d        	$s2, $sp, 16(0x10)
    1f7c:	29c00079 	st.d        	$s2, $sp, 0
    1f80:	16000404 	lu32i.d     	$a0, 32(0x20)
    1f84:	29c0c064 	st.d        	$a0, $sp, 48(0x30)
    1f88:	28c042e4 	ld.d        	$a0, $s0, 16(0x10)
    1f8c:	40013c80 	beqz        	$a0, 316(0x13c)	# 20c8 <_ZN4core3fmt5write17h62bbab114cb7dd1fE+0x198>
    1f90:	28c062e5 	ld.d        	$a1, $s0, 24(0x18)
    1f94:	00410ca6 	slli.d      	$a2, $a1, 0x3
    1f98:	004118a7 	slli.d      	$a3, $a1, 0x6
    1f9c:	001198fa 	sub.d       	$s3, $a3, $a2
    1fa0:	40019f40 	beqz        	$s3, 412(0x19c)	# 213c <_ZN4core3fmt5write17h62bbab114cb7dd1fE+0x20c>
    1fa4:	02bfe006 	addi.w      	$a2, $zero, -8(0xff8)
    1fa8:	02c0609b 	addi.d      	$s4, $a0, 24(0x18)
    1fac:	28c002e4 	ld.d        	$a0, $s0, 0
    1fb0:	0380601d 	ori         	$s6, $zero, 0x18
    1fb4:	0380001e 	ori         	$s7, $zero, 0x0
    1fb8:	0380041f 	ori         	$s8, $zero, 0x1
    1fbc:	02c00078 	addi.d      	$s1, $sp, 0
    1fc0:	002d18a5 	alsl.d      	$a1, $a1, $a2, 0x3
    1fc4:	00450ca5 	srli.d      	$a1, $a1, 0x3
    1fc8:	02c004b9 	addi.d      	$s2, $a1, 1(0x1)
    1fcc:	02c0209c 	addi.d      	$s5, $a0, 8(0x8)
    1fd0:	28c00386 	ld.d        	$a2, $s5, 0
    1fd4:	40001cc0 	beqz        	$a2, 28(0x1c)	# 1ff0 <_ZN4core3fmt5write17h62bbab114cb7dd1fE+0xc0>
    1fd8:	28c0a064 	ld.d        	$a0, $sp, 40(0x28)
    1fdc:	28ffe385 	ld.d        	$a1, $s5, -8(0xff8)
    1fe0:	28c06087 	ld.d        	$a3, $a0, 24(0x18)
    1fe4:	28c08064 	ld.d        	$a0, $sp, 32(0x20)
    1fe8:	4c0000e1 	jirl        	$ra, $a3, 0
    1fec:	5c018080 	bne         	$a0, $zero, 384(0x180)	# 216c <_ZN4core3fmt5write17h62bbab114cb7dd1fE+0x23c>
    1ff0:	28804364 	ld.w        	$a0, $s4, 16(0x10)
    1ff4:	28c082e5 	ld.d        	$a1, $s0, 32(0x20)
    1ff8:	2980d064 	st.w        	$a0, $sp, 52(0x34)
    1ffc:	38207764 	ldx.bu      	$a0, $s4, $s6
    2000:	2900e064 	st.b        	$a0, $sp, 56(0x38)
    2004:	28805364 	ld.w        	$a0, $s4, 20(0x14)
    2008:	2980c064 	st.w        	$a0, $sp, 48(0x30)
    200c:	28c00367 	ld.d        	$a3, $s4, 0
    2010:	28c02364 	ld.d        	$a0, $s4, 8(0x8)
    2014:	400030e0 	beqz        	$a3, 48(0x30)	# 2044 <_ZN4core3fmt5write17h62bbab114cb7dd1fE+0x114>
    2018:	001503c6 	move        	$a2, $s7
    201c:	5c002cff 	bne         	$a3, $s8, 44(0x2c)	# 2048 <_ZN4core3fmt5write17h62bbab114cb7dd1fE+0x118>
    2020:	002d9486 	alsl.d      	$a2, $a0, $a1, 0x4
    2024:	28c020c7 	ld.d        	$a3, $a2, 8(0x8)
    2028:	1c000008 	pcaddu12i   	$a4, 0
    202c:	02fa8108 	addi.d      	$a4, $a4, -352(0xea0)
    2030:	001503c6 	move        	$a2, $s7
    2034:	5c0014e8 	bne         	$a3, $a4, 20(0x14)	# 2048 <_ZN4core3fmt5write17h62bbab114cb7dd1fE+0x118>
    2038:	00411084 	slli.d      	$a0, $a0, 0x4
    203c:	380c10a4 	ldx.d       	$a0, $a1, $a0
    2040:	28c00084 	ld.d        	$a0, $a0, 0
    2044:	001503e6 	move        	$a2, $s8
    2048:	29c02064 	st.d        	$a0, $sp, 8(0x8)
    204c:	29c00066 	st.d        	$a2, $sp, 0
    2050:	28ffc367 	ld.d        	$a3, $s4, -16(0xff0)
    2054:	28ffe364 	ld.d        	$a0, $s4, -8(0xff8)
    2058:	400030e0 	beqz        	$a3, 48(0x30)	# 2088 <_ZN4core3fmt5write17h62bbab114cb7dd1fE+0x158>
    205c:	001503c6 	move        	$a2, $s7
    2060:	5c002cff 	bne         	$a3, $s8, 44(0x2c)	# 208c <_ZN4core3fmt5write17h62bbab114cb7dd1fE+0x15c>
    2064:	002d9486 	alsl.d      	$a2, $a0, $a1, 0x4
    2068:	28c020c7 	ld.d        	$a3, $a2, 8(0x8)
    206c:	1c000008 	pcaddu12i   	$a4, 0
    2070:	02f97108 	addi.d      	$a4, $a4, -420(0xe5c)
    2074:	001503c6 	move        	$a2, $s7
    2078:	5c0014e8 	bne         	$a3, $a4, 20(0x14)	# 208c <_ZN4core3fmt5write17h62bbab114cb7dd1fE+0x15c>
    207c:	00411084 	slli.d      	$a0, $a0, 0x4
    2080:	380c10a4 	ldx.d       	$a0, $a1, $a0
    2084:	28c00084 	ld.d        	$a0, $a0, 0
    2088:	001503e6 	move        	$a2, $s8
    208c:	29c06064 	st.d        	$a0, $sp, 24(0x18)
    2090:	29c04066 	st.d        	$a2, $sp, 16(0x10)
    2094:	28ffa366 	ld.d        	$a2, $s4, -24(0xfe8)
    2098:	004110c4 	slli.d      	$a0, $a2, 0x4
    209c:	380c10a4 	ldx.d       	$a0, $a1, $a0
    20a0:	002d94c5 	alsl.d      	$a1, $a2, $a1, 0x4
    20a4:	28c020a6 	ld.d        	$a2, $a1, 8(0x8)
    20a8:	00150305 	move        	$a1, $s1
    20ac:	4c0000c1 	jirl        	$ra, $a2, 0
    20b0:	5c00bc80 	bne         	$a0, $zero, 188(0xbc)	# 216c <_ZN4core3fmt5write17h62bbab114cb7dd1fE+0x23c>
    20b4:	02c0e37b 	addi.d      	$s4, $s4, 56(0x38)
    20b8:	02ff235a 	addi.d      	$s3, $s3, -56(0xfc8)
    20bc:	02c0439c 	addi.d      	$s5, $s5, 16(0x10)
    20c0:	47ff135f 	bnez        	$s3, -240(0x7fff10)	# 1fd0 <_ZN4core3fmt5write17h62bbab114cb7dd1fE+0xa0>
    20c4:	50007800 	b           	120(0x78)	# 213c <_ZN4core3fmt5write17h62bbab114cb7dd1fE+0x20c>
    20c8:	28c0a2e4 	ld.d        	$a0, $s0, 40(0x28)
    20cc:	40007080 	beqz        	$a0, 112(0x70)	# 213c <_ZN4core3fmt5write17h62bbab114cb7dd1fE+0x20c>
    20d0:	28c082e5 	ld.d        	$a1, $s0, 32(0x20)
    20d4:	02bfc006 	addi.w      	$a2, $zero, -16(0xff0)
    20d8:	0041109a 	slli.d      	$s3, $a0, 0x4
    20dc:	02c00078 	addi.d      	$s1, $sp, 0
    20e0:	002d9886 	alsl.d      	$a2, $a0, $a2, 0x4
    20e4:	28c002e4 	ld.d        	$a0, $s0, 0
    20e8:	004510c6 	srli.d      	$a2, $a2, 0x4
    20ec:	02c004d9 	addi.d      	$s2, $a2, 1(0x1)
    20f0:	02c020bb 	addi.d      	$s4, $a1, 8(0x8)
    20f4:	02c0209c 	addi.d      	$s5, $a0, 8(0x8)
    20f8:	28c00386 	ld.d        	$a2, $s5, 0
    20fc:	40001cc0 	beqz        	$a2, 28(0x1c)	# 2118 <_ZN4core3fmt5write17h62bbab114cb7dd1fE+0x1e8>
    2100:	28c0a064 	ld.d        	$a0, $sp, 40(0x28)
    2104:	28ffe385 	ld.d        	$a1, $s5, -8(0xff8)
    2108:	28c06087 	ld.d        	$a3, $a0, 24(0x18)
    210c:	28c08064 	ld.d        	$a0, $sp, 32(0x20)
    2110:	4c0000e1 	jirl        	$ra, $a3, 0
    2114:	5c005880 	bne         	$a0, $zero, 88(0x58)	# 216c <_ZN4core3fmt5write17h62bbab114cb7dd1fE+0x23c>
    2118:	28ffe364 	ld.d        	$a0, $s4, -8(0xff8)
    211c:	28c00366 	ld.d        	$a2, $s4, 0
    2120:	00150305 	move        	$a1, $s1
    2124:	4c0000c1 	jirl        	$ra, $a2, 0
    2128:	5c004480 	bne         	$a0, $zero, 68(0x44)	# 216c <_ZN4core3fmt5write17h62bbab114cb7dd1fE+0x23c>
    212c:	02ffc35a 	addi.d      	$s3, $s3, -16(0xff0)
    2130:	02c0437b 	addi.d      	$s4, $s4, 16(0x10)
    2134:	02c0439c 	addi.d      	$s5, $s5, 16(0x10)
    2138:	47ffc35f 	bnez        	$s3, -64(0x7fffc0)	# 20f8 <_ZN4core3fmt5write17h62bbab114cb7dd1fE+0x1c8>
    213c:	28c022e4 	ld.d        	$a0, $s0, 8(0x8)
    2140:	6c003724 	bgeu        	$s2, $a0, 52(0x34)	# 2174 <_ZN4core3fmt5write17h62bbab114cb7dd1fE+0x244>
    2144:	28c002e4 	ld.d        	$a0, $s0, 0
    2148:	00411325 	slli.d      	$a1, $s2, 0x4
    214c:	380c1485 	ldx.d       	$a1, $a0, $a1
    2150:	002d9324 	alsl.d      	$a0, $s2, $a0, 0x4
    2154:	28c02086 	ld.d        	$a2, $a0, 8(0x8)
    2158:	28c0a064 	ld.d        	$a0, $sp, 40(0x28)
    215c:	28c06087 	ld.d        	$a3, $a0, 24(0x18)
    2160:	28c08064 	ld.d        	$a0, $sp, 32(0x20)
    2164:	4c0000e1 	jirl        	$ra, $a3, 0
    2168:	58000c80 	beq         	$a0, $zero, 12(0xc)	# 2174 <_ZN4core3fmt5write17h62bbab114cb7dd1fE+0x244>
    216c:	03800404 	ori         	$a0, $zero, 0x1
    2170:	50000800 	b           	8(0x8)	# 2178 <_ZN4core3fmt5write17h62bbab114cb7dd1fE+0x248>
    2174:	03800004 	ori         	$a0, $zero, 0x0
    2178:	28c10077 	ld.d        	$s0, $sp, 64(0x40)
    217c:	28c12078 	ld.d        	$s1, $sp, 72(0x48)
    2180:	28c14079 	ld.d        	$s2, $sp, 80(0x50)
    2184:	28c1607a 	ld.d        	$s3, $sp, 88(0x58)
    2188:	28c1807b 	ld.d        	$s4, $sp, 96(0x60)
    218c:	28c1a07c 	ld.d        	$s5, $sp, 104(0x68)
    2190:	28c1c07d 	ld.d        	$s6, $sp, 112(0x70)
    2194:	28c1e07e 	ld.d        	$s7, $sp, 120(0x78)
    2198:	28c2007f 	ld.d        	$s8, $sp, 128(0x80)
    219c:	28c22061 	ld.d        	$ra, $sp, 136(0x88)
    21a0:	02c24063 	addi.d      	$sp, $sp, 144(0x90)
    21a4:	4c000020 	jirl        	$zero, $ra, 0

00000000000021a8 <_ZN4core3fmt9Formatter12pad_integral17habf59e458b07c8f4E>:
    21a8:	02fe8063 	addi.d      	$sp, $sp, -96(0xfa0)
    21ac:	29c16061 	st.d        	$ra, $sp, 88(0x58)
    21b0:	29c14076 	st.d        	$fp, $sp, 80(0x50)
    21b4:	29c1207f 	st.d        	$s8, $sp, 72(0x48)
    21b8:	29c1007e 	st.d        	$s7, $sp, 64(0x40)
    21bc:	29c0e07d 	st.d        	$s6, $sp, 56(0x38)
    21c0:	29c0c07c 	st.d        	$s5, $sp, 48(0x30)
    21c4:	29c0a07b 	st.d        	$s4, $sp, 40(0x28)
    21c8:	29c0807a 	st.d        	$s3, $sp, 32(0x20)
    21cc:	29c06079 	st.d        	$s2, $sp, 24(0x18)
    21d0:	29c04078 	st.d        	$s1, $sp, 16(0x10)
    21d4:	29c02077 	st.d        	$s0, $sp, 8(0x8)
    21d8:	00150138 	move        	$s1, $a5
    21dc:	00150119 	move        	$s2, $a4
    21e0:	001500fb 	move        	$s4, $a3
    21e4:	001500dc 	move        	$s5, $a2
    21e8:	00150097 	move        	$s0, $a0
    21ec:	400054a0 	beqz        	$a1, 84(0x54)	# 2240 <_ZN4core3fmt9Formatter12pad_integral17habf59e458b07c8f4E+0x98>
    21f0:	2880c2e4 	ld.w        	$a0, $s0, 48(0x30)
    21f4:	0380ac06 	ori         	$a2, $zero, 0x2b
    21f8:	14002207 	lu12i.w     	$a3, 272(0x110)
    21fc:	03400485 	andi        	$a1, $a0, 0x1
    2200:	001314c6 	maskeqz     	$a2, $a2, $a1
    2204:	001394e7 	masknez     	$a3, $a3, $a1
    2208:	00df00a5 	bstrpick.d  	$a1, $a1, 0x1f, 0x0
    220c:	001518fd 	or          	$s6, $a3, $a2
    2210:	0010e0b6 	add.d       	$fp, $a1, $s1
    2214:	03401084 	andi        	$a0, $a0, 0x4
    2218:	40003c80 	beqz        	$a0, 60(0x3c)	# 2254 <_ZN4core3fmt9Formatter12pad_integral17habf59e458b07c8f4E+0xac>
    221c:	0010ef85 	add.d       	$a1, $s5, $s4
    2220:	03800006 	ori         	$a2, $zero, 0x0
    2224:	00150384 	move        	$a0, $s5
    2228:	54268000 	bl          	9856(0x2680)	# 48a8 <_ZN102_$LT$core..iter..adapters..map..Map$LT$I$C$F$GT$$u20$as$u20$core..iter..traits..iterator..Iterator$GT$4fold17h9daeac1da71383a4E>
    222c:	0010d896 	add.d       	$fp, $a0, $fp
    2230:	28c002e4 	ld.d        	$a0, $s0, 0
    2234:	03800405 	ori         	$a1, $zero, 0x1
    2238:	58002c85 	beq         	$a0, $a1, 44(0x2c)	# 2264 <_ZN4core3fmt9Formatter12pad_integral17habf59e458b07c8f4E+0xbc>
    223c:	50009800 	b           	152(0x98)	# 22d4 <_ZN4core3fmt9Formatter12pad_integral17habf59e458b07c8f4E+0x12c>
    2240:	2880c2e4 	ld.w        	$a0, $s0, 48(0x30)
    2244:	02c00716 	addi.d      	$fp, $s1, 1(0x1)
    2248:	0380b41d 	ori         	$s6, $zero, 0x2d
    224c:	03401084 	andi        	$a0, $a0, 0x4
    2250:	47ffcc9f 	bnez        	$a0, -52(0x7fffcc)	# 221c <_ZN4core3fmt9Formatter12pad_integral17habf59e458b07c8f4E+0x74>
    2254:	0380001c 	ori         	$s5, $zero, 0x0
    2258:	28c002e4 	ld.d        	$a0, $s0, 0
    225c:	03800405 	ori         	$a1, $zero, 0x1
    2260:	5c007485 	bne         	$a0, $a1, 116(0x74)	# 22d4 <_ZN4core3fmt9Formatter12pad_integral17habf59e458b07c8f4E+0x12c>
    2264:	28c022fe 	ld.d        	$s7, $s0, 8(0x8)
    2268:	0012fac4 	sltu        	$a0, $fp, $s7
    226c:	03c00484 	xori        	$a0, $a0, 0x1
    2270:	5c006480 	bne         	$a0, $zero, 100(0x64)	# 22d4 <_ZN4core3fmt9Formatter12pad_integral17habf59e458b07c8f4E+0x12c>
    2274:	2a00c2e4 	ld.bu       	$a0, $s0, 48(0x30)
    2278:	03402084 	andi        	$a0, $a0, 0x8
    227c:	4400cc80 	bnez        	$a0, 204(0xcc)	# 2348 <_ZN4core3fmt9Formatter12pad_integral17habf59e458b07c8f4E+0x1a0>
    2280:	2a00e2e4 	ld.bu       	$a0, $s0, 56(0x38)
    2284:	03800c05 	ori         	$a1, $zero, 0x3
    2288:	0380041a 	ori         	$s3, $zero, 0x1
    228c:	1c000087 	pcaddu12i   	$a3, 4(0x4)
    2290:	02fec0e7 	addi.d      	$a3, $a3, -80(0xfb0)
    2294:	00159485 	xor         	$a1, $a0, $a1
    2298:	024004a5 	sltui       	$a1, $a1, 1(0x1)
    229c:	00139484 	masknez     	$a0, $a0, $a1
    22a0:	00131745 	maskeqz     	$a1, $s3, $a1
    22a4:	001510a4 	or          	$a0, $a1, $a0
    22a8:	0011dbc5 	sub.d       	$a1, $s7, $fp
    22ac:	03400c86 	andi        	$a2, $a0, 0x3
    22b0:	03800004 	ori         	$a0, $zero, 0x0
    22b4:	001500bf 	move        	$s8, $a1
    22b8:	004108c6 	slli.d      	$a2, $a2, 0x2
    22bc:	38081cc6 	ldx.w       	$a2, $a2, $a3
    22c0:	00109cc6 	add.d       	$a2, $a2, $a3
    22c4:	4c0000c0 	jirl        	$zero, $a2, 0
    22c8:	0380001f 	ori         	$s8, $zero, 0x0
    22cc:	001500a4 	move        	$a0, $a1
    22d0:	50011000 	b           	272(0x110)	# 23e0 <_ZN4core3fmt9Formatter12pad_integral17habf59e458b07c8f4E+0x238>
    22d4:	001502e4 	move        	$a0, $s0
    22d8:	001503a5 	move        	$a1, $s6
    22dc:	00150386 	move        	$a2, $s5
    22e0:	00150367 	move        	$a3, $s4
    22e4:	54022400 	bl          	548(0x224)	# 2508 <_ZN4core3fmt9Formatter12pad_integral12write_prefix17h3f6a2e35f5b00a1eE>
    22e8:	58000c80 	beq         	$a0, $zero, 12(0xc)	# 22f4 <_ZN4core3fmt9Formatter12pad_integral17habf59e458b07c8f4E+0x14c>
    22ec:	0380041a 	ori         	$s3, $zero, 0x1
    22f0:	50002000 	b           	32(0x20)	# 2310 <_ZN4core3fmt9Formatter12pad_integral17habf59e458b07c8f4E+0x168>
    22f4:	28c0a2e5 	ld.d        	$a1, $s0, 40(0x28)
    22f8:	28c082e4 	ld.d        	$a0, $s0, 32(0x20)
    22fc:	00150306 	move        	$a2, $s1
    2300:	28c060a7 	ld.d        	$a3, $a1, 24(0x18)
    2304:	00150325 	move        	$a1, $s2
    2308:	4c0000e1 	jirl        	$ra, $a3, 0
    230c:	0015009a 	move        	$s3, $a0
    2310:	00150344 	move        	$a0, $s3
    2314:	28c02077 	ld.d        	$s0, $sp, 8(0x8)
    2318:	28c04078 	ld.d        	$s1, $sp, 16(0x10)
    231c:	28c06079 	ld.d        	$s2, $sp, 24(0x18)
    2320:	28c0807a 	ld.d        	$s3, $sp, 32(0x20)
    2324:	28c0a07b 	ld.d        	$s4, $sp, 40(0x28)
    2328:	28c0c07c 	ld.d        	$s5, $sp, 48(0x30)
    232c:	28c0e07d 	ld.d        	$s6, $sp, 56(0x38)
    2330:	28c1007e 	ld.d        	$s7, $sp, 64(0x40)
    2334:	28c1207f 	ld.d        	$s8, $sp, 72(0x48)
    2338:	28c14076 	ld.d        	$fp, $sp, 80(0x50)
    233c:	28c16061 	ld.d        	$ra, $sp, 88(0x58)
    2340:	02c18063 	addi.d      	$sp, $sp, 96(0x60)
    2344:	4c000020 	jirl        	$zero, $ra, 0
    2348:	2880d2e4 	ld.w        	$a0, $s0, 52(0x34)
    234c:	0380041a 	ori         	$s3, $zero, 0x1
    2350:	001503a5 	move        	$a1, $s6
    2354:	00150386 	move        	$a2, $s5
    2358:	00150367 	move        	$a3, $s4
    235c:	29801064 	st.w        	$a0, $sp, 4(0x4)
    2360:	0380c004 	ori         	$a0, $zero, 0x30
    2364:	2980d2e4 	st.w        	$a0, $s0, 52(0x34)
    2368:	0380e004 	ori         	$a0, $zero, 0x38
    236c:	382012ff 	ldx.bu      	$s8, $s0, $a0
    2370:	001502e4 	move        	$a0, $s0
    2374:	2900e2fa 	st.b        	$s3, $s0, 56(0x38)
    2378:	54019000 	bl          	400(0x190)	# 2508 <_ZN4core3fmt9Formatter12pad_integral12write_prefix17h3f6a2e35f5b00a1eE>
    237c:	5fff9480 	bne         	$a0, $zero, -108(0x3ff94)	# 2310 <_ZN4core3fmt9Formatter12pad_integral17habf59e458b07c8f4E+0x168>
    2380:	2a00e2e4 	ld.bu       	$a0, $s0, 56(0x38)
    2384:	03800c05 	ori         	$a1, $zero, 0x3
    2388:	0380041a 	ori         	$s3, $zero, 0x1
    238c:	1c000087 	pcaddu12i   	$a3, 4(0x4)
    2390:	02fa80e7 	addi.d      	$a3, $a3, -352(0xea0)
    2394:	00159485 	xor         	$a1, $a0, $a1
    2398:	024004a5 	sltui       	$a1, $a1, 1(0x1)
    239c:	00139484 	masknez     	$a0, $a0, $a1
    23a0:	00131745 	maskeqz     	$a1, $s3, $a1
    23a4:	001510a4 	or          	$a0, $a1, $a0
    23a8:	0011dbc5 	sub.d       	$a1, $s7, $fp
    23ac:	03400c86 	andi        	$a2, $a0, 0x3
    23b0:	03800004 	ori         	$a0, $zero, 0x0
    23b4:	001500bc 	move        	$s5, $a1
    23b8:	004108c6 	slli.d      	$a2, $a2, 0x2
    23bc:	38081cc6 	ldx.w       	$a2, $a2, $a3
    23c0:	00109cc6 	add.d       	$a2, $a2, $a3
    23c4:	4c0000c0 	jirl        	$zero, $a2, 0
    23c8:	0380001c 	ori         	$s5, $zero, 0x0
    23cc:	001500a4 	move        	$a0, $a1
    23d0:	5000a800 	b           	168(0xa8)	# 2478 <_ZN4core3fmt9Formatter12pad_integral17habf59e458b07c8f4E+0x2d0>
    23d4:	004504a4 	srli.d      	$a0, $a1, 0x1
    23d8:	02c004a5 	addi.d      	$a1, $a1, 1(0x1)
    23dc:	004504bf 	srli.d      	$s8, $a1, 0x1
    23e0:	02c0049e 	addi.d      	$s7, $a0, 1(0x1)
    23e4:	02ffffde 	addi.d      	$s7, $s7, -1(0xfff)
    23e8:	400023c0 	beqz        	$s7, 32(0x20)	# 2408 <_ZN4core3fmt9Formatter12pad_integral17habf59e458b07c8f4E+0x260>
    23ec:	28c0a2e6 	ld.d        	$a2, $s0, 40(0x28)
    23f0:	2880d2e5 	ld.w        	$a1, $s0, 52(0x34)
    23f4:	28c082e4 	ld.d        	$a0, $s0, 32(0x20)
    23f8:	28c080c6 	ld.d        	$a2, $a2, 32(0x20)
    23fc:	4c0000c1 	jirl        	$ra, $a2, 0
    2400:	5bffe480 	beq         	$a0, $zero, -28(0x3ffe4)	# 23e4 <_ZN4core3fmt9Formatter12pad_integral17habf59e458b07c8f4E+0x23c>
    2404:	53ff0fff 	b           	-244(0xfffff0c)	# 2310 <_ZN4core3fmt9Formatter12pad_integral17habf59e458b07c8f4E+0x168>
    2408:	2880d2fe 	ld.w        	$s7, $s0, 52(0x34)
    240c:	001502e4 	move        	$a0, $s0
    2410:	001503a5 	move        	$a1, $s6
    2414:	00150386 	move        	$a2, $s5
    2418:	00150367 	move        	$a3, $s4
    241c:	5400ec00 	bl          	236(0xec)	# 2508 <_ZN4core3fmt9Formatter12pad_integral12write_prefix17h3f6a2e35f5b00a1eE>
    2420:	5ffef080 	bne         	$a0, $zero, -272(0x3fef0)	# 2310 <_ZN4core3fmt9Formatter12pad_integral17habf59e458b07c8f4E+0x168>
    2424:	28c0a2e5 	ld.d        	$a1, $s0, 40(0x28)
    2428:	28c082e4 	ld.d        	$a0, $s0, 32(0x20)
    242c:	00150306 	move        	$a2, $s1
    2430:	28c060a7 	ld.d        	$a3, $a1, 24(0x18)
    2434:	00150325 	move        	$a1, $s2
    2438:	4c0000e1 	jirl        	$ra, $a3, 0
    243c:	5ffed480 	bne         	$a0, $zero, -300(0x3fed4)	# 2310 <_ZN4core3fmt9Formatter12pad_integral17habf59e458b07c8f4E+0x168>
    2440:	02c007f9 	addi.d      	$s2, $s8, 1(0x1)
    2444:	03800018 	ori         	$s1, $zero, 0x0
    2448:	02ffff39 	addi.d      	$s2, $s2, -1(0xfff)
    244c:	40009f20 	beqz        	$s2, 156(0x9c)	# 24e8 <_ZN4core3fmt9Formatter12pad_integral17habf59e458b07c8f4E+0x340>
    2450:	28c0a2e5 	ld.d        	$a1, $s0, 40(0x28)
    2454:	28c082e4 	ld.d        	$a0, $s0, 32(0x20)
    2458:	28c080a6 	ld.d        	$a2, $a1, 32(0x20)
    245c:	001503c5 	move        	$a1, $s7
    2460:	4c0000c1 	jirl        	$ra, $a2, 0
    2464:	5bffe480 	beq         	$a0, $zero, -28(0x3ffe4)	# 2448 <_ZN4core3fmt9Formatter12pad_integral17habf59e458b07c8f4E+0x2a0>
    2468:	53feabff 	b           	-344(0xffffea8)	# 2310 <_ZN4core3fmt9Formatter12pad_integral17habf59e458b07c8f4E+0x168>
    246c:	004504a4 	srli.d      	$a0, $a1, 0x1
    2470:	02c004a5 	addi.d      	$a1, $a1, 1(0x1)
    2474:	004504bc 	srli.d      	$s5, $a1, 0x1
    2478:	02c0049b 	addi.d      	$s4, $a0, 1(0x1)
    247c:	02ffff7b 	addi.d      	$s4, $s4, -1(0xfff)
    2480:	40002360 	beqz        	$s4, 32(0x20)	# 24a0 <_ZN4core3fmt9Formatter12pad_integral17habf59e458b07c8f4E+0x2f8>
    2484:	28c0a2e6 	ld.d        	$a2, $s0, 40(0x28)
    2488:	2880d2e5 	ld.w        	$a1, $s0, 52(0x34)
    248c:	28c082e4 	ld.d        	$a0, $s0, 32(0x20)
    2490:	28c080c6 	ld.d        	$a2, $a2, 32(0x20)
    2494:	4c0000c1 	jirl        	$ra, $a2, 0
    2498:	5bffe480 	beq         	$a0, $zero, -28(0x3ffe4)	# 247c <_ZN4core3fmt9Formatter12pad_integral17habf59e458b07c8f4E+0x2d4>
    249c:	53fe77ff 	b           	-396(0xffffe74)	# 2310 <_ZN4core3fmt9Formatter12pad_integral17habf59e458b07c8f4E+0x168>
    24a0:	28c0a2e5 	ld.d        	$a1, $s0, 40(0x28)
    24a4:	28c082e4 	ld.d        	$a0, $s0, 32(0x20)
    24a8:	2880d2fb 	ld.w        	$s4, $s0, 52(0x34)
    24ac:	00150306 	move        	$a2, $s1
    24b0:	28c060a7 	ld.d        	$a3, $a1, 24(0x18)
    24b4:	00150325 	move        	$a1, $s2
    24b8:	4c0000e1 	jirl        	$ra, $a3, 0
    24bc:	5ffe5480 	bne         	$a0, $zero, -428(0x3fe54)	# 2310 <_ZN4core3fmt9Formatter12pad_integral17habf59e458b07c8f4E+0x168>
    24c0:	02c00798 	addi.d      	$s1, $s5, 1(0x1)
    24c4:	02ffff18 	addi.d      	$s1, $s1, -1(0xfff)
    24c8:	40002b00 	beqz        	$s1, 40(0x28)	# 24f0 <_ZN4core3fmt9Formatter12pad_integral17habf59e458b07c8f4E+0x348>
    24cc:	28c0a2e5 	ld.d        	$a1, $s0, 40(0x28)
    24d0:	28c082e4 	ld.d        	$a0, $s0, 32(0x20)
    24d4:	28c080a6 	ld.d        	$a2, $a1, 32(0x20)
    24d8:	00150365 	move        	$a1, $s4
    24dc:	4c0000c1 	jirl        	$ra, $a2, 0
    24e0:	5bffe480 	beq         	$a0, $zero, -28(0x3ffe4)	# 24c4 <_ZN4core3fmt9Formatter12pad_integral17habf59e458b07c8f4E+0x31c>
    24e4:	53fe2fff 	b           	-468(0xffffe2c)	# 2310 <_ZN4core3fmt9Formatter12pad_integral17habf59e458b07c8f4E+0x168>
    24e8:	0015031a 	move        	$s3, $s1
    24ec:	53fe27ff 	b           	-476(0xffffe24)	# 2310 <_ZN4core3fmt9Formatter12pad_integral17habf59e458b07c8f4E+0x168>
    24f0:	28801064 	ld.w        	$a0, $sp, 4(0x4)
    24f4:	2900e2ff 	st.b        	$s8, $s0, 56(0x38)
    24f8:	0380001a 	ori         	$s3, $zero, 0x0
    24fc:	2980d2e4 	st.w        	$a0, $s0, 52(0x34)
    2500:	53fe13ff 	b           	-496(0xffffe10)	# 2310 <_ZN4core3fmt9Formatter12pad_integral17habf59e458b07c8f4E+0x168>
    2504:	00000000 	0x00000000

0000000000002508 <_ZN4core3fmt9Formatter12pad_integral12write_prefix17h3f6a2e35f5b00a1eE>:
    2508:	02ff8063 	addi.d      	$sp, $sp, -32(0xfe0)
    250c:	29c06061 	st.d        	$ra, $sp, 24(0x18)
    2510:	29c04079 	st.d        	$s2, $sp, 16(0x10)
    2514:	29c02078 	st.d        	$s1, $sp, 8(0x8)
    2518:	29c00077 	st.d        	$s0, $sp, 0
    251c:	00150099 	move        	$s2, $a0
    2520:	001500f7 	move        	$s0, $a3
    2524:	001500d8 	move        	$s1, $a2
    2528:	14002204 	lu12i.w     	$a0, 272(0x110)
    252c:	580020a4 	beq         	$a1, $a0, 32(0x20)	# 254c <_ZN4core3fmt9Formatter12pad_integral12write_prefix17h3f6a2e35f5b00a1eE+0x44>
    2530:	28c0a326 	ld.d        	$a2, $s2, 40(0x28)
    2534:	28c08324 	ld.d        	$a0, $s2, 32(0x20)
    2538:	28c080c6 	ld.d        	$a2, $a2, 32(0x20)
    253c:	4c0000c1 	jirl        	$ra, $a2, 0
    2540:	58000c80 	beq         	$a0, $zero, 12(0xc)	# 254c <_ZN4core3fmt9Formatter12pad_integral12write_prefix17h3f6a2e35f5b00a1eE+0x44>
    2544:	03800404 	ori         	$a0, $zero, 0x1
    2548:	50002800 	b           	40(0x28)	# 2570 <_ZN4core3fmt9Formatter12pad_integral12write_prefix17h3f6a2e35f5b00a1eE+0x68>
    254c:	40002300 	beqz        	$s1, 32(0x20)	# 256c <_ZN4core3fmt9Formatter12pad_integral12write_prefix17h3f6a2e35f5b00a1eE+0x64>
    2550:	28c0a325 	ld.d        	$a1, $s2, 40(0x28)
    2554:	28c08324 	ld.d        	$a0, $s2, 32(0x20)
    2558:	001502e6 	move        	$a2, $s0
    255c:	28c060a7 	ld.d        	$a3, $a1, 24(0x18)
    2560:	00150305 	move        	$a1, $s1
    2564:	4c0000e1 	jirl        	$ra, $a3, 0
    2568:	50000800 	b           	8(0x8)	# 2570 <_ZN4core3fmt9Formatter12pad_integral12write_prefix17h3f6a2e35f5b00a1eE+0x68>
    256c:	03800004 	ori         	$a0, $zero, 0x0
    2570:	28c00077 	ld.d        	$s0, $sp, 0
    2574:	28c02078 	ld.d        	$s1, $sp, 8(0x8)
    2578:	28c04079 	ld.d        	$s2, $sp, 16(0x10)
    257c:	28c06061 	ld.d        	$ra, $sp, 24(0x18)
    2580:	02c08063 	addi.d      	$sp, $sp, 32(0x20)
    2584:	4c000020 	jirl        	$zero, $ra, 0

0000000000002588 <_ZN4core3fmt9Formatter3pad17h0b8cb1dee35d2891E>:
    2588:	02ff0063 	addi.d      	$sp, $sp, -64(0xfc0)
    258c:	29c0e061 	st.d        	$ra, $sp, 56(0x38)
    2590:	29c0c07c 	st.d        	$s5, $sp, 48(0x30)
    2594:	29c0a07b 	st.d        	$s4, $sp, 40(0x28)
    2598:	29c0807a 	st.d        	$s3, $sp, 32(0x20)
    259c:	29c06079 	st.d        	$s2, $sp, 24(0x18)
    25a0:	29c04078 	st.d        	$s1, $sp, 16(0x10)
    25a4:	29c02077 	st.d        	$s0, $sp, 8(0x8)
    25a8:	001500d8 	move        	$s1, $a2
    25ac:	00150097 	move        	$s0, $a0
    25b0:	28c04086 	ld.d        	$a2, $a0, 16(0x10)
    25b4:	28c00084 	ld.d        	$a0, $a0, 0
    25b8:	001500b9 	move        	$s2, $a1
    25bc:	03800405 	ori         	$a1, $zero, 0x1
    25c0:	5c000c85 	bne         	$a0, $a1, 12(0xc)	# 25cc <_ZN4core3fmt9Formatter3pad17h0b8cb1dee35d2891E+0x44>
    25c4:	58000cc5 	beq         	$a2, $a1, 12(0xc)	# 25d0 <_ZN4core3fmt9Formatter3pad17h0b8cb1dee35d2891E+0x48>
    25c8:	5001f400 	b           	500(0x1f4)	# 27bc <_ZN4core3fmt9Formatter3pad17h0b8cb1dee35d2891E+0x234>
    25cc:	5c0258c5 	bne         	$a2, $a1, 600(0x258)	# 2824 <_ZN4core3fmt9Formatter3pad17h0b8cb1dee35d2891E+0x29c>
    25d0:	28c062e8 	ld.d        	$a4, $s0, 24(0x18)
    25d4:	0010e327 	add.d       	$a3, $s2, $s1
    25d8:	4000d100 	beqz        	$a4, 208(0xd0)	# 26a8 <_ZN4core3fmt9Formatter3pad17h0b8cb1dee35d2891E+0x120>
    25dc:	03800006 	ori         	$a2, $zero, 0x0
    25e0:	0380000a 	ori         	$a6, $zero, 0x0
    25e4:	0383800b 	ori         	$a7, $zero, 0xe0
    25e8:	0383c00c 	ori         	$t0, $zero, 0xf0
    25ec:	1400380d 	lu12i.w     	$t1, 448(0x1c0)
    25f0:	1400220e 	lu12i.w     	$t2, 272(0x110)
    25f4:	00150329 	move        	$a5, $s2
    25f8:	50003400 	b           	52(0x34)	# 262c <_ZN4core3fmt9Formatter3pad17h0b8cb1dee35d2891E+0xa4>
    25fc:	0040ca10 	slli.w      	$t4, $t4, 0x12
    2600:	0040b231 	slli.w      	$t5, $t5, 0xc
    2604:	0014b610 	and         	$t4, $t4, $t1
    2608:	00154230 	or          	$t4, $t5, $t4
    260c:	00409a51 	slli.w      	$t5, $t6, 0x6
    2610:	00154610 	or          	$t4, $t4, $t5
    2614:	00154e10 	or          	$t4, $t4, $t7
    2618:	5801a20e 	beq         	$t4, $t2, 416(0x1a0)	# 27b8 <_ZN4core3fmt9Formatter3pad17h0b8cb1dee35d2891E+0x230>
    261c:	0011bd2f 	sub.d       	$t3, $a5, $t3
    2620:	02fffd08 	addi.d      	$a4, $a4, -1(0xfff)
    2624:	001099e6 	add.d       	$a2, $t3, $a2
    2628:	40008900 	beqz        	$a4, 136(0x88)	# 26b0 <_ZN4core3fmt9Formatter3pad17h0b8cb1dee35d2891E+0x128>
    262c:	58018ce9 	beq         	$a3, $a5, 396(0x18c)	# 27b8 <_ZN4core3fmt9Formatter3pad17h0b8cb1dee35d2891E+0x230>
    2630:	0015012f 	move        	$t3, $a5
    2634:	02c00529 	addi.d      	$a5, $a5, 1(0x1)
    2638:	280001f0 	ld.b        	$t4, $t3, 0
    263c:	02000211 	slti        	$t5, $t4, 0
    2640:	5bffde20 	beq         	$t5, $zero, -36(0x3ffdc)	# 261c <_ZN4core3fmt9Formatter3pad17h0b8cb1dee35d2891E+0x94>
    2644:	0343fe10 	andi        	$t4, $t4, 0xff
    2648:	58001d27 	beq         	$a5, $a3, 28(0x1c)	# 2664 <_ZN4core3fmt9Formatter3pad17h0b8cb1dee35d2891E+0xdc>
    264c:	2a0005f1 	ld.bu       	$t5, $t3, 1(0x1)
    2650:	02c009e9 	addi.d      	$a5, $t3, 2(0x2)
    2654:	00150133 	move        	$t7, $a5
    2658:	0340fe31 	andi        	$t5, $t5, 0x3f
    265c:	6bffc20b 	bltu        	$t4, $a7, -64(0x3ffc0)	# 261c <_ZN4core3fmt9Formatter3pad17h0b8cb1dee35d2891E+0x94>
    2660:	50001000 	b           	16(0x10)	# 2670 <_ZN4core3fmt9Formatter3pad17h0b8cb1dee35d2891E+0xe8>
    2664:	001500f3 	move        	$t7, $a3
    2668:	00150151 	move        	$t5, $a6
    266c:	6bffb20b 	bltu        	$t4, $a7, -80(0x3ffb0)	# 261c <_ZN4core3fmt9Formatter3pad17h0b8cb1dee35d2891E+0x94>
    2670:	001500f4 	move        	$t8, $a3
    2674:	00150152 	move        	$t6, $a6
    2678:	58001667 	beq         	$t7, $a3, 20(0x14)	# 268c <_ZN4core3fmt9Formatter3pad17h0b8cb1dee35d2891E+0x104>
    267c:	2a000272 	ld.bu       	$t6, $t7, 0
    2680:	02c00669 	addi.d      	$a5, $t7, 1(0x1)
    2684:	00150134 	move        	$t8, $a5
    2688:	0340fe52 	andi        	$t6, $t6, 0x3f
    268c:	6bff920c 	bltu        	$t4, $t0, -112(0x3ff90)	# 261c <_ZN4core3fmt9Formatter3pad17h0b8cb1dee35d2891E+0x94>
    2690:	00150153 	move        	$t7, $a6
    2694:	5bff6a87 	beq         	$t8, $a3, -152(0x3ff68)	# 25fc <_ZN4core3fmt9Formatter3pad17h0b8cb1dee35d2891E+0x74>
    2698:	2a000293 	ld.bu       	$t7, $t8, 0
    269c:	02c00689 	addi.d      	$a5, $t8, 1(0x1)
    26a0:	0340fe73 	andi        	$t7, $t7, 0x3f
    26a4:	53ff5bff 	b           	-168(0xfffff58)	# 25fc <_ZN4core3fmt9Formatter3pad17h0b8cb1dee35d2891E+0x74>
    26a8:	03800006 	ori         	$a2, $zero, 0x0
    26ac:	00150329 	move        	$a5, $s2
    26b0:	580108e9 	beq         	$a3, $a5, 264(0x108)	# 27b8 <_ZN4core3fmt9Formatter3pad17h0b8cb1dee35d2891E+0x230>
    26b4:	28000128 	ld.b        	$a4, $a5, 0
    26b8:	0200010a 	slti        	$a6, $a4, 0
    26bc:	5800a140 	beq         	$a6, $zero, 160(0xa0)	# 275c <_ZN4core3fmt9Formatter3pad17h0b8cb1dee35d2891E+0x1d4>
    26c0:	02c0052a 	addi.d      	$a6, $a5, 1(0x1)
    26c4:	0343fd08 	andi        	$a4, $a4, 0xff
    26c8:	58002147 	beq         	$a6, $a3, 32(0x20)	# 26e8 <_ZN4core3fmt9Formatter3pad17h0b8cb1dee35d2891E+0x160>
    26cc:	02c0092a 	addi.d      	$a6, $a5, 2(0x2)
    26d0:	2a000529 	ld.bu       	$a5, $a5, 1(0x1)
    26d4:	0340fd29 	andi        	$a5, $a5, 0x3f
    26d8:	00409929 	slli.w      	$a5, $a5, 0x6
    26dc:	0383800b 	ori         	$a7, $zero, 0xe0
    26e0:	6c00190b 	bgeu        	$a4, $a7, 24(0x18)	# 26f8 <_ZN4core3fmt9Formatter3pad17h0b8cb1dee35d2891E+0x170>
    26e4:	50007800 	b           	120(0x78)	# 275c <_ZN4core3fmt9Formatter3pad17h0b8cb1dee35d2891E+0x1d4>
    26e8:	03800009 	ori         	$a5, $zero, 0x0
    26ec:	001500ea 	move        	$a6, $a3
    26f0:	0383800b 	ori         	$a7, $zero, 0xe0
    26f4:	6800690b 	bltu        	$a4, $a7, 104(0x68)	# 275c <_ZN4core3fmt9Formatter3pad17h0b8cb1dee35d2891E+0x1d4>
    26f8:	58001d47 	beq         	$a6, $a3, 28(0x1c)	# 2714 <_ZN4core3fmt9Formatter3pad17h0b8cb1dee35d2891E+0x18c>
    26fc:	02c0054b 	addi.d      	$a7, $a6, 1(0x1)
    2700:	2a00014a 	ld.bu       	$a6, $a6, 0
    2704:	0340fd4a 	andi        	$a6, $a6, 0x3f
    2708:	0383c00c 	ori         	$t0, $zero, 0xf0
    270c:	6c00190c 	bgeu        	$a4, $t0, 24(0x18)	# 2724 <_ZN4core3fmt9Formatter3pad17h0b8cb1dee35d2891E+0x19c>
    2710:	50004c00 	b           	76(0x4c)	# 275c <_ZN4core3fmt9Formatter3pad17h0b8cb1dee35d2891E+0x1d4>
    2714:	0380000a 	ori         	$a6, $zero, 0x0
    2718:	001500eb 	move        	$a7, $a3
    271c:	0383c00c 	ori         	$t0, $zero, 0xf0
    2720:	68003d0c 	bltu        	$a4, $t0, 60(0x3c)	# 275c <_ZN4core3fmt9Formatter3pad17h0b8cb1dee35d2891E+0x1d4>
    2724:	00152549 	or          	$a5, $a6, $a5
    2728:	58001167 	beq         	$a7, $a3, 16(0x10)	# 2738 <_ZN4core3fmt9Formatter3pad17h0b8cb1dee35d2891E+0x1b0>
    272c:	2a000167 	ld.bu       	$a3, $a7, 0
    2730:	0340fce7 	andi        	$a3, $a3, 0x3f
    2734:	50000800 	b           	8(0x8)	# 273c <_ZN4core3fmt9Formatter3pad17h0b8cb1dee35d2891E+0x1b4>
    2738:	03800007 	ori         	$a3, $zero, 0x0
    273c:	0040c908 	slli.w      	$a4, $a4, 0x12
    2740:	1400380a 	lu12i.w     	$a6, 448(0x1c0)
    2744:	00409929 	slli.w      	$a5, $a5, 0x6
    2748:	0014a908 	and         	$a4, $a4, $a6
    274c:	00152128 	or          	$a4, $a5, $a4
    2750:	00151d07 	or          	$a3, $a4, $a3
    2754:	14002208 	lu12i.w     	$a4, 272(0x110)
    2758:	580060e8 	beq         	$a3, $a4, 96(0x60)	# 27b8 <_ZN4core3fmt9Formatter3pad17h0b8cb1dee35d2891E+0x230>
    275c:	40001cc0 	beqz        	$a2, 28(0x1c)	# 2778 <_ZN4core3fmt9Formatter3pad17h0b8cb1dee35d2891E+0x1f0>
    2760:	6c0020d8 	bgeu        	$a2, $s1, 32(0x20)	# 2780 <_ZN4core3fmt9Formatter3pad17h0b8cb1dee35d2891E+0x1f8>
    2764:	38001b27 	ldx.b       	$a3, $s2, $a2
    2768:	02bf0008 	addi.w      	$a4, $zero, -64(0xfc0)
    276c:	600024e8 	blt         	$a3, $a4, 36(0x24)	# 2790 <_ZN4core3fmt9Formatter3pad17h0b8cb1dee35d2891E+0x208>
    2770:	001500c7 	move        	$a3, $a2
    2774:	50001400 	b           	20(0x14)	# 2788 <_ZN4core3fmt9Formatter3pad17h0b8cb1dee35d2891E+0x200>
    2778:	03800007 	ori         	$a3, $zero, 0x0
    277c:	50000c00 	b           	12(0xc)	# 2788 <_ZN4core3fmt9Formatter3pad17h0b8cb1dee35d2891E+0x200>
    2780:	00150307 	move        	$a3, $s1
    2784:	5c000cd8 	bne         	$a2, $s1, 12(0xc)	# 2790 <_ZN4core3fmt9Formatter3pad17h0b8cb1dee35d2891E+0x208>
    2788:	00150328 	move        	$a4, $s2
    278c:	50000c00 	b           	12(0xc)	# 2798 <_ZN4core3fmt9Formatter3pad17h0b8cb1dee35d2891E+0x210>
    2790:	03800008 	ori         	$a4, $zero, 0x0
    2794:	001500c7 	move        	$a3, $a2
    2798:	02400506 	sltui       	$a2, $a4, 1(0x1)
    279c:	004080c6 	slli.w      	$a2, $a2, 0x0
    27a0:	001398e7 	masknez     	$a3, $a3, $a2
    27a4:	00131b09 	maskeqz     	$a5, $s1, $a2
    27a8:	00151d38 	or          	$s1, $a5, $a3
    27ac:	00139907 	masknez     	$a3, $a4, $a2
    27b0:	00131b26 	maskeqz     	$a2, $s2, $a2
    27b4:	00151cd9 	or          	$s2, $a2, $a3
    27b8:	5c006c85 	bne         	$a0, $a1, 108(0x6c)	# 2824 <_ZN4core3fmt9Formatter3pad17h0b8cb1dee35d2891E+0x29c>
    27bc:	28c022fb 	ld.d        	$s4, $s0, 8(0x8)
    27c0:	0380001a 	ori         	$s3, $zero, 0x0
    27c4:	0010e325 	add.d       	$a1, $s2, $s1
    27c8:	00150324 	move        	$a0, $s2
    27cc:	00150346 	move        	$a2, $s3
    27d0:	5420d800 	bl          	8408(0x20d8)	# 48a8 <_ZN102_$LT$core..iter..adapters..map..Map$LT$I$C$F$GT$$u20$as$u20$core..iter..traits..iterator..Iterator$GT$4fold17h9daeac1da71383a4E>
    27d4:	0012ec85 	sltu        	$a1, $a0, $s4
    27d8:	03c004a5 	xori        	$a1, $a1, 0x1
    27dc:	5c0048a0 	bne         	$a1, $zero, 72(0x48)	# 2824 <_ZN4core3fmt9Formatter3pad17h0b8cb1dee35d2891E+0x29c>
    27e0:	2a00e2e5 	ld.bu       	$a1, $s0, 56(0x38)
    27e4:	03800c06 	ori         	$a2, $zero, 0x3
    27e8:	00119364 	sub.d       	$a0, $s4, $a0
    27ec:	0015009c 	move        	$s5, $a0
    27f0:	001598a6 	xor         	$a2, $a1, $a2
    27f4:	024004c6 	sltui       	$a2, $a2, 1(0x1)
    27f8:	001398a5 	masknez     	$a1, $a1, $a2
    27fc:	1c000086 	pcaddu12i   	$a2, 4(0x4)
    2800:	02e940c6 	addi.d      	$a2, $a2, -1456(0xa50)
    2804:	03400ca5 	andi        	$a1, $a1, 0x3
    2808:	004108a5 	slli.d      	$a1, $a1, 0x2
    280c:	380818a5 	ldx.w       	$a1, $a1, $a2
    2810:	001098a5 	add.d       	$a1, $a1, $a2
    2814:	4c0000a0 	jirl        	$zero, $a1, 0
    2818:	0380001c 	ori         	$s5, $zero, 0x0
    281c:	0015009a 	move        	$s3, $a0
    2820:	50005400 	b           	84(0x54)	# 2874 <_ZN4core3fmt9Formatter3pad17h0b8cb1dee35d2891E+0x2ec>
    2824:	28c0a2e5 	ld.d        	$a1, $s0, 40(0x28)
    2828:	28c082e4 	ld.d        	$a0, $s0, 32(0x20)
    282c:	00150306 	move        	$a2, $s1
    2830:	28c060a7 	ld.d        	$a3, $a1, 24(0x18)
    2834:	00150325 	move        	$a1, $s2
    2838:	4c0000e1 	jirl        	$ra, $a3, 0
    283c:	0015009a 	move        	$s3, $a0
    2840:	00150344 	move        	$a0, $s3
    2844:	28c02077 	ld.d        	$s0, $sp, 8(0x8)
    2848:	28c04078 	ld.d        	$s1, $sp, 16(0x10)
    284c:	28c06079 	ld.d        	$s2, $sp, 24(0x18)
    2850:	28c0807a 	ld.d        	$s3, $sp, 32(0x20)
    2854:	28c0a07b 	ld.d        	$s4, $sp, 40(0x28)
    2858:	28c0c07c 	ld.d        	$s5, $sp, 48(0x30)
    285c:	28c0e061 	ld.d        	$ra, $sp, 56(0x38)
    2860:	02c10063 	addi.d      	$sp, $sp, 64(0x40)
    2864:	4c000020 	jirl        	$zero, $ra, 0
    2868:	0045049a 	srli.d      	$s3, $a0, 0x1
    286c:	02c00484 	addi.d      	$a0, $a0, 1(0x1)
    2870:	0045049c 	srli.d      	$s5, $a0, 0x1
    2874:	02c0075b 	addi.d      	$s4, $s3, 1(0x1)
    2878:	0380041a 	ori         	$s3, $zero, 0x1
    287c:	02ffff7b 	addi.d      	$s4, $s4, -1(0xfff)
    2880:	40002360 	beqz        	$s4, 32(0x20)	# 28a0 <_ZN4core3fmt9Formatter3pad17h0b8cb1dee35d2891E+0x318>
    2884:	28c0a2e6 	ld.d        	$a2, $s0, 40(0x28)
    2888:	2880d2e5 	ld.w        	$a1, $s0, 52(0x34)
    288c:	28c082e4 	ld.d        	$a0, $s0, 32(0x20)
    2890:	28c080c6 	ld.d        	$a2, $a2, 32(0x20)
    2894:	4c0000c1 	jirl        	$ra, $a2, 0
    2898:	5bffe480 	beq         	$a0, $zero, -28(0x3ffe4)	# 287c <_ZN4core3fmt9Formatter3pad17h0b8cb1dee35d2891E+0x2f4>
    289c:	53ffa7ff 	b           	-92(0xfffffa4)	# 2840 <_ZN4core3fmt9Formatter3pad17h0b8cb1dee35d2891E+0x2b8>
    28a0:	28c0a2e5 	ld.d        	$a1, $s0, 40(0x28)
    28a4:	28c082e4 	ld.d        	$a0, $s0, 32(0x20)
    28a8:	2880d2fb 	ld.w        	$s4, $s0, 52(0x34)
    28ac:	00150306 	move        	$a2, $s1
    28b0:	28c060a7 	ld.d        	$a3, $a1, 24(0x18)
    28b4:	00150325 	move        	$a1, $s2
    28b8:	4c0000e1 	jirl        	$ra, $a3, 0
    28bc:	5fff8480 	bne         	$a0, $zero, -124(0x3ff84)	# 2840 <_ZN4core3fmt9Formatter3pad17h0b8cb1dee35d2891E+0x2b8>
    28c0:	02c00799 	addi.d      	$s2, $s5, 1(0x1)
    28c4:	03800018 	ori         	$s1, $zero, 0x0
    28c8:	02ffff39 	addi.d      	$s2, $s2, -1(0xfff)
    28cc:	40002320 	beqz        	$s2, 32(0x20)	# 28ec <_ZN4core3fmt9Formatter3pad17h0b8cb1dee35d2891E+0x364>
    28d0:	28c0a2e5 	ld.d        	$a1, $s0, 40(0x28)
    28d4:	28c082e4 	ld.d        	$a0, $s0, 32(0x20)
    28d8:	28c080a6 	ld.d        	$a2, $a1, 32(0x20)
    28dc:	00150365 	move        	$a1, $s4
    28e0:	4c0000c1 	jirl        	$ra, $a2, 0
    28e4:	5bffe480 	beq         	$a0, $zero, -28(0x3ffe4)	# 28c8 <_ZN4core3fmt9Formatter3pad17h0b8cb1dee35d2891E+0x340>
    28e8:	53ff5bff 	b           	-168(0xfffff58)	# 2840 <_ZN4core3fmt9Formatter3pad17h0b8cb1dee35d2891E+0x2b8>
    28ec:	0015031a 	move        	$s3, $s1
    28f0:	53ff53ff 	b           	-176(0xfffff50)	# 2840 <_ZN4core3fmt9Formatter3pad17h0b8cb1dee35d2891E+0x2b8>
    28f4:	00000000 	0x00000000

00000000000028f8 <_ZN4core3fmt9Formatter9write_fmt17hccc0fde06b12e2cbE>:
    28f8:	02ff0063 	addi.d      	$sp, $sp, -64(0xfc0)
    28fc:	29c0e061 	st.d        	$ra, $sp, 56(0x38)
    2900:	28c000a6 	ld.d        	$a2, $a1, 0
    2904:	28c020a8 	ld.d        	$a4, $a1, 8(0x8)
    2908:	28c0a087 	ld.d        	$a3, $a0, 40(0x28)
    290c:	28c08084 	ld.d        	$a0, $a0, 32(0x20)
    2910:	28c080a9 	ld.d        	$a5, $a1, 32(0x20)
    2914:	29c04068 	st.d        	$a4, $sp, 16(0x10)
    2918:	29c02066 	st.d        	$a2, $sp, 8(0x8)
    291c:	28c040a6 	ld.d        	$a2, $a1, 16(0x10)
    2920:	28c060a8 	ld.d        	$a4, $a1, 24(0x18)
    2924:	28c0a0a5 	ld.d        	$a1, $a1, 40(0x28)
    2928:	29c0a069 	st.d        	$a5, $sp, 40(0x28)
    292c:	29c0c065 	st.d        	$a1, $sp, 48(0x30)
    2930:	29c06066 	st.d        	$a2, $sp, 24(0x18)
    2934:	02c02066 	addi.d      	$a2, $sp, 8(0x8)
    2938:	001500e5 	move        	$a1, $a3
    293c:	29c08068 	st.d        	$a4, $sp, 32(0x20)
    2940:	57f5f3ff 	bl          	-2576(0xffff5f0)	# 1f30 <_ZN4core3fmt5write17h62bbab114cb7dd1fE>
    2944:	28c0e061 	ld.d        	$ra, $sp, 56(0x38)
    2948:	02c10063 	addi.d      	$sp, $sp, 64(0x40)
    294c:	4c000020 	jirl        	$zero, $ra, 0

0000000000002950 <_ZN42_$LT$str$u20$as$u20$core..fmt..Display$GT$3fmt17h27225c16acf76297E>:
    2950:	001500a7 	move        	$a3, $a1
    2954:	00150085 	move        	$a1, $a0
    2958:	001500c4 	move        	$a0, $a2
    295c:	001500e6 	move        	$a2, $a3
    2960:	53fc2bff 	b           	-984(0xffffc28)	# 2588 <_ZN4core3fmt9Formatter3pad17h0b8cb1dee35d2891E>
    2964:	00000000 	0x00000000

0000000000002968 <_ZN41_$LT$char$u20$as$u20$core..fmt..Debug$GT$3fmt17h4c89e4f7265f3b5aE>:
    2968:	02ff0063 	addi.d      	$sp, $sp, -64(0xfc0)
    296c:	29c0e061 	st.d        	$ra, $sp, 56(0x38)
    2970:	29c0c07a 	st.d        	$s3, $sp, 48(0x30)
    2974:	29c0a079 	st.d        	$s2, $sp, 40(0x28)
    2978:	29c08078 	st.d        	$s1, $sp, 32(0x20)
    297c:	29c06077 	st.d        	$s0, $sp, 24(0x18)
    2980:	00150099 	move        	$s2, $a0
    2984:	001500b7 	move        	$s0, $a1
    2988:	28c080a4 	ld.d        	$a0, $a1, 32(0x20)
    298c:	28c0a0a5 	ld.d        	$a1, $a1, 40(0x28)
    2990:	28c080a6 	ld.d        	$a2, $a1, 32(0x20)
    2994:	03809c05 	ori         	$a1, $zero, 0x27
    2998:	4c0000c1 	jirl        	$ra, $a2, 0
    299c:	03800418 	ori         	$s1, $zero, 0x1
    29a0:	5c00f480 	bne         	$a0, $zero, 244(0xf4)	# 2a94 <_ZN41_$LT$char$u20$as$u20$core..fmt..Debug$GT$3fmt17h4c89e4f7265f3b5aE+0x12c>
    29a4:	28800339 	ld.w        	$s2, $s2, 0
    29a8:	03800804 	ori         	$a0, $zero, 0x2
    29ac:	02bfdf25 	addi.w      	$a1, $s2, -9(0xff7)
    29b0:	02407ca6 	sltui       	$a2, $a1, 31(0x1f)
    29b4:	58002cc0 	beq         	$a2, $zero, 44(0x2c)	# 29e0 <_ZN41_$LT$char$u20$as$u20$core..fmt..Debug$GT$3fmt17h4c89e4f7265f3b5aE+0x78>
    29b8:	00df00a6 	bstrpick.d  	$a2, $a1, 0x1f, 0x0
    29bc:	1c000087 	pcaddu12i   	$a3, 4(0x4)
    29c0:	02e280e7 	addi.d      	$a3, $a3, -1888(0x8a0)
    29c4:	0381d005 	ori         	$a1, $zero, 0x74
    29c8:	004108c6 	slli.d      	$a2, $a2, 0x2
    29cc:	38081cc6 	ldx.w       	$a2, $a2, $a3
    29d0:	00109cc8 	add.d       	$a4, $a2, $a3
    29d4:	4c000100 	jirl        	$zero, $a4, 0
    29d8:	0381b805 	ori         	$a1, $zero, 0x6e
    29dc:	50006000 	b           	96(0x60)	# 2a3c <_ZN41_$LT$char$u20$as$u20$core..fmt..Debug$GT$3fmt17h4c89e4f7265f3b5aE+0xd4>
    29e0:	03817005 	ori         	$a1, $zero, 0x5c
    29e4:	58002325 	beq         	$s2, $a1, 32(0x20)	# 2a04 <_ZN41_$LT$char$u20$as$u20$core..fmt..Debug$GT$3fmt17h4c89e4f7265f3b5aE+0x9c>
    29e8:	00150324 	move        	$a0, $s2
    29ec:	541f7c00 	bl          	8060(0x1f7c)	# 4968 <_ZN4core7unicode12unicode_data15grapheme_extend6lookup17hb7139100c1dca3fdE>
    29f0:	5c002480 	bne         	$a0, $zero, 36(0x24)	# 2a14 <_ZN41_$LT$char$u20$as$u20$core..fmt..Debug$GT$3fmt17h4c89e4f7265f3b5aE+0xac>
    29f4:	00150324 	move        	$a0, $s2
    29f8:	54109000 	bl          	4240(0x1090)	# 3a88 <_ZN4core7unicode9printable12is_printable17hbea83c9195fbb9e8E>
    29fc:	58001880 	beq         	$a0, $zero, 24(0x18)	# 2a14 <_ZN41_$LT$char$u20$as$u20$core..fmt..Debug$GT$3fmt17h4c89e4f7265f3b5aE+0xac>
    2a00:	03800404 	ori         	$a0, $zero, 0x1
    2a04:	00150325 	move        	$a1, $s2
    2a08:	50003400 	b           	52(0x34)	# 2a3c <_ZN41_$LT$char$u20$as$u20$core..fmt..Debug$GT$3fmt17h4c89e4f7265f3b5aE+0xd4>
    2a0c:	0381c805 	ori         	$a1, $zero, 0x72
    2a10:	50002c00 	b           	44(0x2c)	# 2a3c <_ZN41_$LT$char$u20$as$u20$core..fmt..Debug$GT$3fmt17h4c89e4f7265f3b5aE+0xd4>
    2a14:	03800724 	ori         	$a0, $s2, 0x1
    2a18:	03800005 	ori         	$a1, $zero, 0x0
    2a1c:	00df0326 	bstrpick.d  	$a2, $s2, 0x1f, 0x0
    2a20:	00001484 	clz.w       	$a0, $a0
    2a24:	160000a5 	lu32i.d     	$a1, 5(0x5)
    2a28:	00448884 	srli.w      	$a0, $a0, 0x2
    2a2c:	001514c6 	or          	$a2, $a2, $a1
    2a30:	03c01c84 	xori        	$a0, $a0, 0x7
    2a34:	00df0087 	bstrpick.d  	$a3, $a0, 0x1f, 0x0
    2a38:	03800c04 	ori         	$a0, $zero, 0x3
    2a3c:	02c00079 	addi.d      	$s2, $sp, 0
    2a40:	1400221a 	lu12i.w     	$s3, 272(0x110)
    2a44:	29c02067 	st.d        	$a3, $sp, 8(0x8)
    2a48:	29801065 	st.w        	$a1, $sp, 4(0x4)
    2a4c:	29800064 	st.w        	$a0, $sp, 0
    2a50:	29c04066 	st.d        	$a2, $sp, 16(0x10)
    2a54:	00150324 	move        	$a0, $s2
    2a58:	54008000 	bl          	128(0x80)	# 2ad8 <_ZN82_$LT$core..char..EscapeDebug$u20$as$u20$core..iter..traits..iterator..Iterator$GT$4next17h4b85005ff32ac142E>
    2a5c:	5800209a 	beq         	$a0, $s3, 32(0x20)	# 2a7c <_ZN41_$LT$char$u20$as$u20$core..fmt..Debug$GT$3fmt17h4c89e4f7265f3b5aE+0x114>
    2a60:	28c0a2e6 	ld.d        	$a2, $s0, 40(0x28)
    2a64:	00150085 	move        	$a1, $a0
    2a68:	28c082e4 	ld.d        	$a0, $s0, 32(0x20)
    2a6c:	28c080c6 	ld.d        	$a2, $a2, 32(0x20)
    2a70:	4c0000c1 	jirl        	$ra, $a2, 0
    2a74:	43ffe09f 	beqz        	$a0, -32(0x7fffe0)	# 2a54 <_ZN41_$LT$char$u20$as$u20$core..fmt..Debug$GT$3fmt17h4c89e4f7265f3b5aE+0xec>
    2a78:	50001c00 	b           	28(0x1c)	# 2a94 <_ZN41_$LT$char$u20$as$u20$core..fmt..Debug$GT$3fmt17h4c89e4f7265f3b5aE+0x12c>
    2a7c:	28c0a2e5 	ld.d        	$a1, $s0, 40(0x28)
    2a80:	28c082e4 	ld.d        	$a0, $s0, 32(0x20)
    2a84:	28c080a6 	ld.d        	$a2, $a1, 32(0x20)
    2a88:	03809c05 	ori         	$a1, $zero, 0x27
    2a8c:	4c0000c1 	jirl        	$ra, $a2, 0
    2a90:	00150098 	move        	$s1, $a0
    2a94:	00150304 	move        	$a0, $s1
    2a98:	28c06077 	ld.d        	$s0, $sp, 24(0x18)
    2a9c:	28c08078 	ld.d        	$s1, $sp, 32(0x20)
    2aa0:	28c0a079 	ld.d        	$s2, $sp, 40(0x28)
    2aa4:	28c0c07a 	ld.d        	$s3, $sp, 48(0x30)
    2aa8:	28c0e061 	ld.d        	$ra, $sp, 56(0x38)
    2aac:	02c10063 	addi.d      	$sp, $sp, 64(0x40)
    2ab0:	4c000020 	jirl        	$zero, $ra, 0
    2ab4:	00000000 	0x00000000

0000000000002ab8 <_ZN53_$LT$core..fmt..Error$u20$as$u20$core..fmt..Debug$GT$3fmt17h473e0c6e9e14cfcfE>:
    2ab8:	28c080a4 	ld.d        	$a0, $a1, 32(0x20)
    2abc:	28c0a0a5 	ld.d        	$a1, $a1, 40(0x28)
    2ac0:	03801406 	ori         	$a2, $zero, 0x5
    2ac4:	28c060a7 	ld.d        	$a3, $a1, 24(0x18)
    2ac8:	1c000085 	pcaddu12i   	$a1, 4(0x4)
    2acc:	02e040a5 	addi.d      	$a1, $a1, -2032(0x810)
    2ad0:	4c0000e0 	jirl        	$zero, $a3, 0
    2ad4:	00000000 	0x00000000

0000000000002ad8 <_ZN82_$LT$core..char..EscapeDebug$u20$as$u20$core..iter..traits..iterator..Iterator$GT$4next17h4b85005ff32ac142E>:
    2ad8:	2a800086 	ld.wu       	$a2, $a0, 0
    2adc:	1c000087 	pcaddu12i   	$a3, 4(0x4)
    2ae0:	02e010e7 	addi.d      	$a3, $a3, -2044(0x804)
    2ae4:	14002205 	lu12i.w     	$a1, 272(0x110)
    2ae8:	004108c6 	slli.d      	$a2, $a2, 0x2
    2aec:	38081cc6 	ldx.w       	$a2, $a2, $a3
    2af0:	00109cc6 	add.d       	$a2, $a2, $a3
    2af4:	4c0000c0 	jirl        	$zero, $a2, 0
    2af8:	001500a4 	move        	$a0, $a1
    2afc:	4c000020 	jirl        	$zero, $ra, 0
    2b00:	03800405 	ori         	$a1, $zero, 0x1
    2b04:	29800085 	st.w        	$a1, $a0, 0
    2b08:	03817004 	ori         	$a0, $zero, 0x5c
    2b0c:	4c000020 	jirl        	$zero, $ra, 0
    2b10:	29800080 	st.w        	$zero, $a0, 0
    2b14:	28801084 	ld.w        	$a0, $a0, 4(0x4)
    2b18:	4c000020 	jirl        	$zero, $ra, 0
    2b1c:	2a005086 	ld.bu       	$a2, $a0, 20(0x14)
    2b20:	1c000067 	pcaddu12i   	$a3, 3(0x3)
    2b24:	02df40e7 	addi.d      	$a3, $a3, 2000(0x7d0)
    2b28:	004108c6 	slli.d      	$a2, $a2, 0x2
    2b2c:	38081cc6 	ldx.w       	$a2, $a2, $a3
    2b30:	00109cc6 	add.d       	$a2, $a2, $a3
    2b34:	4c0000c0 	jirl        	$zero, $a2, 0
    2b38:	03800005 	ori         	$a1, $zero, 0x0
    2b3c:	29005085 	st.b        	$a1, $a0, 20(0x14)
    2b40:	0381f404 	ori         	$a0, $zero, 0x7d
    2b44:	4c000020 	jirl        	$zero, $ra, 0
    2b48:	28c02086 	ld.d        	$a2, $a0, 8(0x8)
    2b4c:	28804085 	ld.w        	$a1, $a0, 16(0x10)
    2b50:	03802809 	ori         	$a5, $zero, 0xa
    2b54:	03815c08 	ori         	$a4, $zero, 0x57
    2b58:	004080c7 	slli.w      	$a3, $a2, 0x0
    2b5c:	004088e7 	slli.w      	$a3, $a3, 0x2
    2b60:	034070e7 	andi        	$a3, $a3, 0x1c
    2b64:	00179ca5 	srl.w       	$a1, $a1, $a3
    2b68:	0380c007 	ori         	$a3, $zero, 0x30
    2b6c:	03403ca5 	andi        	$a1, $a1, 0xf
    2b70:	0012a4a9 	sltu        	$a5, $a1, $a5
    2b74:	0013a508 	masknez     	$a4, $a4, $a5
    2b78:	001324e7 	maskeqz     	$a3, $a3, $a5
    2b7c:	001520e7 	or          	$a3, $a3, $a4
    2b80:	001014e5 	add.w       	$a1, $a3, $a1
    2b84:	400044c0 	beqz        	$a2, 68(0x44)	# 2bc8 <_ZN82_$LT$core..char..EscapeDebug$u20$as$u20$core..iter..traits..iterator..Iterator$GT$4next17h4b85005ff32ac142E+0xf0>
    2b88:	02fffcc6 	addi.d      	$a2, $a2, -1(0xfff)
    2b8c:	29c02086 	st.d        	$a2, $a0, 8(0x8)
    2b90:	001500a4 	move        	$a0, $a1
    2b94:	4c000020 	jirl        	$zero, $ra, 0
    2b98:	03800805 	ori         	$a1, $zero, 0x2
    2b9c:	29005085 	st.b        	$a1, $a0, 20(0x14)
    2ba0:	0381ec04 	ori         	$a0, $zero, 0x7b
    2ba4:	4c000020 	jirl        	$zero, $ra, 0
    2ba8:	03800c05 	ori         	$a1, $zero, 0x3
    2bac:	29005085 	st.b        	$a1, $a0, 20(0x14)
    2bb0:	0381d404 	ori         	$a0, $zero, 0x75
    2bb4:	4c000020 	jirl        	$zero, $ra, 0
    2bb8:	03801005 	ori         	$a1, $zero, 0x4
    2bbc:	29005085 	st.b        	$a1, $a0, 20(0x14)
    2bc0:	03817004 	ori         	$a0, $zero, 0x5c
    2bc4:	4c000020 	jirl        	$zero, $ra, 0
    2bc8:	03800406 	ori         	$a2, $zero, 0x1
    2bcc:	29005086 	st.b        	$a2, $a0, 20(0x14)
    2bd0:	001500a4 	move        	$a0, $a1
    2bd4:	4c000020 	jirl        	$zero, $ra, 0

0000000000002bd8 <_ZN4core5slice5index26slice_start_index_len_fail17h126875fde9d4000dE>:
    2bd8:	02fe4063 	addi.d      	$sp, $sp, -112(0xf90)
    2bdc:	29c1a061 	st.d        	$ra, $sp, 104(0x68)
    2be0:	29c04065 	st.d        	$a1, $sp, 16(0x10)
    2be4:	29c02064 	st.d        	$a0, $sp, 8(0x8)
    2be8:	1c0000a4 	pcaddu12i   	$a0, 5(0x5)
    2bec:	02d94084 	addi.d      	$a0, $a0, 1616(0x650)
    2bf0:	03800808 	ori         	$a4, $zero, 0x2
    2bf4:	03800005 	ori         	$a1, $zero, 0x0
    2bf8:	02c12067 	addi.d      	$a3, $sp, 72(0x48)
    2bfc:	29c10068 	st.d        	$a4, $sp, 64(0x40)
    2c00:	29c0e067 	st.d        	$a3, $sp, 56(0x38)
    2c04:	29c0a065 	st.d        	$a1, $sp, 40(0x28)
    2c08:	29c08068 	st.d        	$a4, $sp, 32(0x20)
    2c0c:	29c06064 	st.d        	$a0, $sp, 24(0x18)
    2c10:	1c0000c4 	pcaddu12i   	$a0, 6(0x6)
    2c14:	28edc084 	ld.d        	$a0, $a0, -1168(0xb70)
    2c18:	02c04065 	addi.d      	$a1, $sp, 16(0x10)
    2c1c:	29c18064 	st.d        	$a0, $sp, 96(0x60)
    2c20:	29c16065 	st.d        	$a1, $sp, 88(0x58)
    2c24:	29c14064 	st.d        	$a0, $sp, 80(0x50)
    2c28:	02c02064 	addi.d      	$a0, $sp, 8(0x8)
    2c2c:	001500c5 	move        	$a1, $a2
    2c30:	29c12064 	st.d        	$a0, $sp, 72(0x48)
    2c34:	02c06064 	addi.d      	$a0, $sp, 24(0x18)
    2c38:	57f25bff 	bl          	-3496(0xffff258)	# 1e90 <_ZN4core9panicking9panic_fmt17h7deed37ee899fd65E>
    2c3c:	002a0000 	break       	0x0

0000000000002c40 <_ZN4core5slice5index24slice_end_index_len_fail17h8c4cac97e399ce69E>:
    2c40:	02fe4063 	addi.d      	$sp, $sp, -112(0xf90)
    2c44:	29c1a061 	st.d        	$ra, $sp, 104(0x68)
    2c48:	29c04065 	st.d        	$a1, $sp, 16(0x10)
    2c4c:	29c02064 	st.d        	$a0, $sp, 8(0x8)
    2c50:	1c0000a4 	pcaddu12i   	$a0, 5(0x5)
    2c54:	02d82084 	addi.d      	$a0, $a0, 1544(0x608)
    2c58:	03800808 	ori         	$a4, $zero, 0x2
    2c5c:	03800005 	ori         	$a1, $zero, 0x0
    2c60:	02c12067 	addi.d      	$a3, $sp, 72(0x48)
    2c64:	29c10068 	st.d        	$a4, $sp, 64(0x40)
    2c68:	29c0e067 	st.d        	$a3, $sp, 56(0x38)
    2c6c:	29c0a065 	st.d        	$a1, $sp, 40(0x28)
    2c70:	29c08068 	st.d        	$a4, $sp, 32(0x20)
    2c74:	29c06064 	st.d        	$a0, $sp, 24(0x18)
    2c78:	1c0000c4 	pcaddu12i   	$a0, 6(0x6)
    2c7c:	28ec2084 	ld.d        	$a0, $a0, -1272(0xb08)
    2c80:	02c04065 	addi.d      	$a1, $sp, 16(0x10)
    2c84:	29c18064 	st.d        	$a0, $sp, 96(0x60)
    2c88:	29c16065 	st.d        	$a1, $sp, 88(0x58)
    2c8c:	29c14064 	st.d        	$a0, $sp, 80(0x50)
    2c90:	02c02064 	addi.d      	$a0, $sp, 8(0x8)
    2c94:	001500c5 	move        	$a1, $a2
    2c98:	29c12064 	st.d        	$a0, $sp, 72(0x48)
    2c9c:	02c06064 	addi.d      	$a0, $sp, 24(0x18)
    2ca0:	57f1f3ff 	bl          	-3600(0xffff1f0)	# 1e90 <_ZN4core9panicking9panic_fmt17h7deed37ee899fd65E>
    2ca4:	002a0000 	break       	0x0

0000000000002ca8 <_ZN4core5slice5index22slice_index_order_fail17h95c3f5fe615ff62dE>:
    2ca8:	02fe4063 	addi.d      	$sp, $sp, -112(0xf90)
    2cac:	29c1a061 	st.d        	$ra, $sp, 104(0x68)
    2cb0:	29c04065 	st.d        	$a1, $sp, 16(0x10)
    2cb4:	29c02064 	st.d        	$a0, $sp, 8(0x8)
    2cb8:	1c0000a4 	pcaddu12i   	$a0, 5(0x5)
    2cbc:	02d70084 	addi.d      	$a0, $a0, 1472(0x5c0)
    2cc0:	03800808 	ori         	$a4, $zero, 0x2
    2cc4:	03800005 	ori         	$a1, $zero, 0x0
    2cc8:	02c12067 	addi.d      	$a3, $sp, 72(0x48)
    2ccc:	29c10068 	st.d        	$a4, $sp, 64(0x40)
    2cd0:	29c0e067 	st.d        	$a3, $sp, 56(0x38)
    2cd4:	29c0a065 	st.d        	$a1, $sp, 40(0x28)
    2cd8:	29c08068 	st.d        	$a4, $sp, 32(0x20)
    2cdc:	29c06064 	st.d        	$a0, $sp, 24(0x18)
    2ce0:	1c0000c4 	pcaddu12i   	$a0, 6(0x6)
    2ce4:	28ea8084 	ld.d        	$a0, $a0, -1376(0xaa0)
    2ce8:	02c04065 	addi.d      	$a1, $sp, 16(0x10)
    2cec:	29c18064 	st.d        	$a0, $sp, 96(0x60)
    2cf0:	29c16065 	st.d        	$a1, $sp, 88(0x58)
    2cf4:	29c14064 	st.d        	$a0, $sp, 80(0x50)
    2cf8:	02c02064 	addi.d      	$a0, $sp, 8(0x8)
    2cfc:	001500c5 	move        	$a1, $a2
    2d00:	29c12064 	st.d        	$a0, $sp, 72(0x48)
    2d04:	02c06064 	addi.d      	$a0, $sp, 24(0x18)
    2d08:	57f18bff 	bl          	-3704(0xffff188)	# 1e90 <_ZN4core9panicking9panic_fmt17h7deed37ee899fd65E>
    2d0c:	002a0000 	break       	0x0

0000000000002d10 <_ZN4core3ptr30drop_in_place$LT$$RF$usize$GT$17heeea762fc4c16682E>:
    2d10:	4c000020 	jirl        	$zero, $ra, 0
    2d14:	00000000 	0x00000000

0000000000002d18 <_ZN64_$LT$core..str..error..Utf8Error$u20$as$u20$core..fmt..Debug$GT$3fmt17h1e95a878e067db4eE>:
    2d18:	02ff0063 	addi.d      	$sp, $sp, -64(0xfc0)
    2d1c:	29c0e061 	st.d        	$ra, $sp, 56(0x38)
    2d20:	29c0c079 	st.d        	$s2, $sp, 48(0x30)
    2d24:	29c0a078 	st.d        	$s1, $sp, 40(0x28)
    2d28:	29c08077 	st.d        	$s0, $sp, 32(0x20)
    2d2c:	00150098 	move        	$s1, $a0
    2d30:	001500b7 	move        	$s0, $a1
    2d34:	28c080a4 	ld.d        	$a0, $a1, 32(0x20)
    2d38:	28c0a0a5 	ld.d        	$a1, $a1, 40(0x28)
    2d3c:	03802419 	ori         	$s2, $zero, 0x9
    2d40:	00150326 	move        	$a2, $s2
    2d44:	28c060a7 	ld.d        	$a3, $a1, 24(0x18)
    2d48:	1c000065 	pcaddu12i   	$a1, 3(0x3)
    2d4c:	02d89ca5 	addi.d      	$a1, $a1, 1575(0x627)
    2d50:	4c0000e1 	jirl        	$ra, $a3, 0
    2d54:	00408084 	slli.w      	$a0, $a0, 0x0
    2d58:	03800405 	ori         	$a1, $zero, 0x1
    2d5c:	03800006 	ori         	$a2, $zero, 0x0
    2d60:	29c02077 	st.d        	$s0, $sp, 8(0x8)
    2d64:	02c02077 	addi.d      	$s0, $sp, 8(0x8)
    2d68:	02c06067 	addi.d      	$a3, $sp, 24(0x18)
    2d6c:	001390c9 	masknez     	$a5, $a2, $a0
    2d70:	001310a4 	maskeqz     	$a0, $a1, $a0
    2d74:	1c000065 	pcaddu12i   	$a1, 3(0x3)
    2d78:	02d810a5 	addi.d      	$a1, $a1, 1540(0x604)
    2d7c:	1c0000a8 	pcaddu12i   	$a4, 5(0x5)
    2d80:	02d47108 	addi.d      	$a4, $a4, 1308(0x51c)
    2d84:	03802c06 	ori         	$a2, $zero, 0xb
    2d88:	29c06078 	st.d        	$s1, $sp, 24(0x18)
    2d8c:	00152484 	or          	$a0, $a0, $a5
    2d90:	29c04064 	st.d        	$a0, $sp, 16(0x10)
    2d94:	001502e4 	move        	$a0, $s0
    2d98:	54029000 	bl          	656(0x290)	# 3028 <_ZN4core3fmt8builders11DebugStruct5field17h3a9035d1055c2414E>
    2d9c:	02c02304 	addi.d      	$a0, $s1, 8(0x8)
    2da0:	1c000065 	pcaddu12i   	$a1, 3(0x3)
    2da4:	02d78ca5 	addi.d      	$a1, $a1, 1507(0x5e3)
    2da8:	1c0000a8 	pcaddu12i   	$a4, 5(0x5)
    2dac:	02d44108 	addi.d      	$a4, $a4, 1296(0x510)
    2db0:	02c06067 	addi.d      	$a3, $sp, 24(0x18)
    2db4:	00150326 	move        	$a2, $s2
    2db8:	29c06064 	st.d        	$a0, $sp, 24(0x18)
    2dbc:	001502e4 	move        	$a0, $s0
    2dc0:	54026800 	bl          	616(0x268)	# 3028 <_ZN4core3fmt8builders11DebugStruct5field17h3a9035d1055c2414E>
    2dc4:	001502e4 	move        	$a0, $s0
    2dc8:	54047800 	bl          	1144(0x478)	# 3240 <_ZN4core3fmt8builders11DebugStruct6finish17h7b4a90f5a2e09a1fE>
    2dcc:	28c08077 	ld.d        	$s0, $sp, 32(0x20)
    2dd0:	28c0a078 	ld.d        	$s1, $sp, 40(0x28)
    2dd4:	28c0c079 	ld.d        	$s2, $sp, 48(0x30)
    2dd8:	28c0e061 	ld.d        	$ra, $sp, 56(0x38)
    2ddc:	02c10063 	addi.d      	$sp, $sp, 64(0x40)
    2de0:	4c000020 	jirl        	$zero, $ra, 0
    2de4:	00000000 	0x00000000

0000000000002de8 <_ZN68_$LT$core..fmt..builders..PadAdapter$u20$as$u20$core..fmt..Write$GT$9write_str17hd66f3aabe95da5f1E>:
    2de8:	02fe4063 	addi.d      	$sp, $sp, -112(0xf90)
    2dec:	29c1a061 	st.d        	$ra, $sp, 104(0x68)
    2df0:	29c18076 	st.d        	$fp, $sp, 96(0x60)
    2df4:	29c1607f 	st.d        	$s8, $sp, 88(0x58)
    2df8:	29c1407e 	st.d        	$s7, $sp, 80(0x50)
    2dfc:	29c1207d 	st.d        	$s6, $sp, 72(0x48)
    2e00:	29c1007c 	st.d        	$s5, $sp, 64(0x40)
    2e04:	29c0e07b 	st.d        	$s4, $sp, 56(0x38)
    2e08:	29c0c07a 	st.d        	$s3, $sp, 48(0x30)
    2e0c:	29c0a079 	st.d        	$s2, $sp, 40(0x28)
    2e10:	29c08078 	st.d        	$s1, $sp, 32(0x20)
    2e14:	29c06077 	st.d        	$s0, $sp, 24(0x18)
    2e18:	40018cc0 	beqz        	$a2, 396(0x18c)	# 2fa4 <_ZN68_$LT$core..fmt..builders..PadAdapter$u20$as$u20$core..fmt..Write$GT$9write_str17hd66f3aabe95da5f1E+0x1bc>
    2e1c:	0015009a 	move        	$s3, $a0
    2e20:	03800404 	ori         	$a0, $zero, 0x1
    2e24:	001500d7 	move        	$s0, $a2
    2e28:	001500b9 	move        	$s2, $a1
    2e2c:	0380001b 	ori         	$s4, $zero, 0x0
    2e30:	03803c1f 	ori         	$s8, $zero, 0xf
    2e34:	03802818 	ori         	$s1, $zero, 0xa
    2e38:	03800016 	ori         	$fp, $zero, 0x0
    2e3c:	0380281c 	ori         	$s5, $zero, 0xa
    2e40:	0380041d 	ori         	$s6, $zero, 0x1
    2e44:	29803064 	st.w        	$a0, $sp, 12(0xc)
    2e48:	03801004 	ori         	$a0, $zero, 0x4
    2e4c:	29c04064 	st.d        	$a0, $sp, 16(0x10)
    2e50:	50002800 	b           	40(0x28)	# 2e78 <_ZN68_$LT$core..fmt..builders..PadAdapter$u20$as$u20$core..fmt..Write$GT$9write_str17hd66f3aabe95da5f1E+0x90>
    2e54:	28c060a7 	ld.d        	$a3, $a1, 24(0x18)
    2e58:	00150325 	move        	$a1, $s2
    2e5c:	00150366 	move        	$a2, $s4
    2e60:	4c0000e1 	jirl        	$ra, $a3, 0
    2e64:	0015037e 	move        	$s7, $s4
    2e68:	5c013480 	bne         	$a0, $zero, 308(0x134)	# 2f9c <_ZN68_$LT$core..fmt..builders..PadAdapter$u20$as$u20$core..fmt..Write$GT$9write_str17hd66f3aabe95da5f1E+0x1b4>
    2e6c:	0010fb39 	add.d       	$s2, $s2, $s7
    2e70:	0011faf7 	sub.d       	$s0, $s0, $s7
    2e74:	40013ae0 	beqz        	$s0, 312(0x138)	# 2fac <_ZN68_$LT$core..fmt..builders..PadAdapter$u20$as$u20$core..fmt..Write$GT$9write_str17hd66f3aabe95da5f1E+0x1c4>
    2e78:	28c04344 	ld.d        	$a0, $s3, 16(0x10)
    2e7c:	2a000084 	ld.bu       	$a0, $a0, 0
    2e80:	40002480 	beqz        	$a0, 36(0x24)	# 2ea4 <_ZN68_$LT$core..fmt..builders..PadAdapter$u20$as$u20$core..fmt..Write$GT$9write_str17hd66f3aabe95da5f1E+0xbc>
    2e84:	28c02345 	ld.d        	$a1, $s3, 8(0x8)
    2e88:	28c00344 	ld.d        	$a0, $s3, 0
    2e8c:	28c060a7 	ld.d        	$a3, $a1, 24(0x18)
    2e90:	1c000065 	pcaddu12i   	$a1, 3(0x3)
    2e94:	02d3f0a5 	addi.d      	$a1, $a1, 1276(0x4fc)
    2e98:	28c04066 	ld.d        	$a2, $sp, 16(0x10)
    2e9c:	4c0000e1 	jirl        	$ra, $a3, 0
    2ea0:	5c00fc80 	bne         	$a0, $zero, 252(0xfc)	# 2f9c <_ZN68_$LT$core..fmt..builders..PadAdapter$u20$as$u20$core..fmt..Write$GT$9write_str17hd66f3aabe95da5f1E+0x1b4>
    2ea4:	0015037e 	move        	$s7, $s4
    2ea8:	001502e6 	move        	$a2, $s0
    2eac:	0010fb25 	add.d       	$a1, $s2, $s7
    2eb0:	00129be4 	sltu        	$a0, $s8, $a2
    2eb4:	58004080 	beq         	$a0, $zero, 64(0x40)	# 2ef4 <_ZN68_$LT$core..fmt..builders..PadAdapter$u20$as$u20$core..fmt..Write$GT$9write_str17hd66f3aabe95da5f1E+0x10c>
    2eb8:	00150384 	move        	$a0, $s5
    2ebc:	5416b400 	bl          	5812(0x16b4)	# 4570 <_ZN4core5slice6memchr19memchr_general_case17hd0c4588bd91c18c2E>
    2ec0:	5c00549d 	bne         	$a0, $s6, 84(0x54)	# 2f14 <_ZN68_$LT$core..fmt..builders..PadAdapter$u20$as$u20$core..fmt..Write$GT$9write_str17hd66f3aabe95da5f1E+0x12c>
    2ec4:	001500a6 	move        	$a2, $a1
    2ec8:	0010f8c4 	add.d       	$a0, $a2, $s7
    2ecc:	02c0049e 	addi.d      	$s7, $a0, 1(0x1)
    2ed0:	6c001097 	bgeu        	$a0, $s0, 16(0x10)	# 2ee0 <_ZN68_$LT$core..fmt..builders..PadAdapter$u20$as$u20$core..fmt..Write$GT$9write_str17hd66f3aabe95da5f1E+0xf8>
    2ed4:	00109324 	add.d       	$a0, $s2, $a0
    2ed8:	2a000084 	ld.bu       	$a0, $a0, 0
    2edc:	58008c98 	beq         	$a0, $s1, 140(0x8c)	# 2f68 <_ZN68_$LT$core..fmt..builders..PadAdapter$u20$as$u20$core..fmt..Write$GT$9write_str17hd66f3aabe95da5f1E+0x180>
    2ee0:	680036fe 	bltu        	$s0, $s7, 52(0x34)	# 2f14 <_ZN68_$LT$core..fmt..builders..PadAdapter$u20$as$u20$core..fmt..Write$GT$9write_str17hd66f3aabe95da5f1E+0x12c>
    2ee4:	0011fae6 	sub.d       	$a2, $s0, $s7
    2ee8:	0010fb25 	add.d       	$a1, $s2, $s7
    2eec:	00129be4 	sltu        	$a0, $s8, $a2
    2ef0:	5fffc880 	bne         	$a0, $zero, -56(0x3ffc8)	# 2eb8 <_ZN68_$LT$core..fmt..builders..PadAdapter$u20$as$u20$core..fmt..Write$GT$9write_str17hd66f3aabe95da5f1E+0xd0>
    2ef4:	400020c0 	beqz        	$a2, 32(0x20)	# 2f14 <_ZN68_$LT$core..fmt..builders..PadAdapter$u20$as$u20$core..fmt..Write$GT$9write_str17hd66f3aabe95da5f1E+0x12c>
    2ef8:	0011fae4 	sub.d       	$a0, $s0, $s7
    2efc:	00150366 	move        	$a2, $s4
    2f00:	001098a7 	add.d       	$a3, $a1, $a2
    2f04:	2a0000e7 	ld.bu       	$a3, $a3, 0
    2f08:	5bffc0f8 	beq         	$a3, $s1, -64(0x3ffc0)	# 2ec8 <_ZN68_$LT$core..fmt..builders..PadAdapter$u20$as$u20$core..fmt..Write$GT$9write_str17hd66f3aabe95da5f1E+0xe0>
    2f0c:	02c004c6 	addi.d      	$a2, $a2, 1(0x1)
    2f10:	5ffff086 	bne         	$a0, $a2, -16(0x3fff0)	# 2f00 <_ZN68_$LT$core..fmt..builders..PadAdapter$u20$as$u20$core..fmt..Write$GT$9write_str17hd66f3aabe95da5f1E+0x118>
    2f14:	28c04344 	ld.d        	$a0, $s3, 16(0x10)
    2f18:	29000096 	st.b        	$fp, $a0, 0
    2f1c:	28c02345 	ld.d        	$a1, $s3, 8(0x8)
    2f20:	28c00344 	ld.d        	$a0, $s3, 0
    2f24:	43ff32ff 	beqz        	$s0, -208(0x7fff30)	# 2e54 <_ZN68_$LT$core..fmt..builders..PadAdapter$u20$as$u20$core..fmt..Write$GT$9write_str17hd66f3aabe95da5f1E+0x6c>
    2f28:	001502fe 	move        	$s7, $s0
    2f2c:	0012dfc6 	sltu        	$a2, $s7, $s0
    2f30:	580054c0 	beq         	$a2, $zero, 84(0x54)	# 2f84 <_ZN68_$LT$core..fmt..builders..PadAdapter$u20$as$u20$core..fmt..Write$GT$9write_str17hd66f3aabe95da5f1E+0x19c>
    2f34:	38007b26 	ldx.b       	$a2, $s2, $s7
    2f38:	023f00c6 	slti        	$a2, $a2, -64(0xfc0)
    2f3c:	5c00a8c0 	bne         	$a2, $zero, 168(0xa8)	# 2fe4 <_ZN68_$LT$core..fmt..builders..PadAdapter$u20$as$u20$core..fmt..Write$GT$9write_str17hd66f3aabe95da5f1E+0x1fc>
    2f40:	28c060a7 	ld.d        	$a3, $a1, 24(0x18)
    2f44:	00150325 	move        	$a1, $s2
    2f48:	001503c6 	move        	$a2, $s7
    2f4c:	4c0000e1 	jirl        	$ra, $a3, 0
    2f50:	5c004c80 	bne         	$a0, $zero, 76(0x4c)	# 2f9c <_ZN68_$LT$core..fmt..builders..PadAdapter$u20$as$u20$core..fmt..Write$GT$9write_str17hd66f3aabe95da5f1E+0x1b4>
    2f54:	0010fb24 	add.d       	$a0, $s2, $s7
    2f58:	28000084 	ld.b        	$a0, $a0, 0
    2f5c:	023f0084 	slti        	$a0, $a0, -64(0xfc0)
    2f60:	5bff0c80 	beq         	$a0, $zero, -244(0x3ff0c)	# 2e6c <_ZN68_$LT$core..fmt..builders..PadAdapter$u20$as$u20$core..fmt..Write$GT$9write_str17hd66f3aabe95da5f1E+0x84>
    2f64:	5000a000 	b           	160(0xa0)	# 3004 <_ZN68_$LT$core..fmt..builders..PadAdapter$u20$as$u20$core..fmt..Write$GT$9write_str17hd66f3aabe95da5f1E+0x21c>
    2f68:	28c04344 	ld.d        	$a0, $s3, 16(0x10)
    2f6c:	28803065 	ld.w        	$a1, $sp, 12(0xc)
    2f70:	29000085 	st.b        	$a1, $a0, 0
    2f74:	28c02345 	ld.d        	$a1, $s3, 8(0x8)
    2f78:	28c00344 	ld.d        	$a0, $s3, 0
    2f7c:	0012dfc6 	sltu        	$a2, $s7, $s0
    2f80:	5fffb4c0 	bne         	$a2, $zero, -76(0x3ffb4)	# 2f34 <_ZN68_$LT$core..fmt..builders..PadAdapter$u20$as$u20$core..fmt..Write$GT$9write_str17hd66f3aabe95da5f1E+0x14c>
    2f84:	5c0062fe 	bne         	$s0, $s7, 96(0x60)	# 2fe4 <_ZN68_$LT$core..fmt..builders..PadAdapter$u20$as$u20$core..fmt..Write$GT$9write_str17hd66f3aabe95da5f1E+0x1fc>
    2f88:	28c060a7 	ld.d        	$a3, $a1, 24(0x18)
    2f8c:	00150325 	move        	$a1, $s2
    2f90:	001502e6 	move        	$a2, $s0
    2f94:	4c0000e1 	jirl        	$ra, $a3, 0
    2f98:	5bfed480 	beq         	$a0, $zero, -300(0x3fed4)	# 2e6c <_ZN68_$LT$core..fmt..builders..PadAdapter$u20$as$u20$core..fmt..Write$GT$9write_str17hd66f3aabe95da5f1E+0x84>
    2f9c:	28803064 	ld.w        	$a0, $sp, 12(0xc)
    2fa0:	50001000 	b           	16(0x10)	# 2fb0 <_ZN68_$LT$core..fmt..builders..PadAdapter$u20$as$u20$core..fmt..Write$GT$9write_str17hd66f3aabe95da5f1E+0x1c8>
    2fa4:	03800004 	ori         	$a0, $zero, 0x0
    2fa8:	50000800 	b           	8(0x8)	# 2fb0 <_ZN68_$LT$core..fmt..builders..PadAdapter$u20$as$u20$core..fmt..Write$GT$9write_str17hd66f3aabe95da5f1E+0x1c8>
    2fac:	001502c4 	move        	$a0, $fp
    2fb0:	28c06077 	ld.d        	$s0, $sp, 24(0x18)
    2fb4:	28c08078 	ld.d        	$s1, $sp, 32(0x20)
    2fb8:	28c0a079 	ld.d        	$s2, $sp, 40(0x28)
    2fbc:	28c0c07a 	ld.d        	$s3, $sp, 48(0x30)
    2fc0:	28c0e07b 	ld.d        	$s4, $sp, 56(0x38)
    2fc4:	28c1007c 	ld.d        	$s5, $sp, 64(0x40)
    2fc8:	28c1207d 	ld.d        	$s6, $sp, 72(0x48)
    2fcc:	28c1407e 	ld.d        	$s7, $sp, 80(0x50)
    2fd0:	28c1607f 	ld.d        	$s8, $sp, 88(0x58)
    2fd4:	28c18076 	ld.d        	$fp, $sp, 96(0x60)
    2fd8:	28c1a061 	ld.d        	$ra, $sp, 104(0x68)
    2fdc:	02c1c063 	addi.d      	$sp, $sp, 112(0x70)
    2fe0:	4c000020 	jirl        	$zero, $ra, 0
    2fe4:	03800006 	ori         	$a2, $zero, 0x0
    2fe8:	1c0000a8 	pcaddu12i   	$a4, 5(0x5)
    2fec:	02cbc108 	addi.d      	$a4, $a4, 752(0x2f0)
    2ff0:	00150324 	move        	$a0, $s2
    2ff4:	001502e5 	move        	$a1, $s0
    2ff8:	001503c7 	move        	$a3, $s7
    2ffc:	54055400 	bl          	1364(0x554)	# 3550 <_ZN4core3str16slice_error_fail17h007062f4ad75a26cE>
    3000:	002a0000 	break       	0x0
    3004:	1c0000a8 	pcaddu12i   	$a4, 5(0x5)
    3008:	02cbb108 	addi.d      	$a4, $a4, 748(0x2ec)
    300c:	00150324 	move        	$a0, $s2
    3010:	001502e5 	move        	$a1, $s0
    3014:	001503c6 	move        	$a2, $s7
    3018:	001502e7 	move        	$a3, $s0
    301c:	54053400 	bl          	1332(0x534)	# 3550 <_ZN4core3str16slice_error_fail17h007062f4ad75a26cE>
    3020:	002a0000 	break       	0x0
    3024:	00000000 	0x00000000

0000000000003028 <_ZN4core3fmt8builders11DebugStruct5field17h3a9035d1055c2414E>:
    3028:	02fd4063 	addi.d      	$sp, $sp, -176(0xf50)
    302c:	29c2a061 	st.d        	$ra, $sp, 168(0xa8)
    3030:	29c2807f 	st.d        	$s8, $sp, 160(0xa0)
    3034:	29c2607e 	st.d        	$s7, $sp, 152(0x98)
    3038:	29c2407d 	st.d        	$s6, $sp, 144(0x90)
    303c:	29c2207c 	st.d        	$s5, $sp, 136(0x88)
    3040:	29c2007b 	st.d        	$s4, $sp, 128(0x80)
    3044:	29c1e07a 	st.d        	$s3, $sp, 120(0x78)
    3048:	29c1c079 	st.d        	$s2, $sp, 112(0x70)
    304c:	29c1a078 	st.d        	$s1, $sp, 104(0x68)
    3050:	29c18077 	st.d        	$s0, $sp, 96(0x60)
    3054:	00150097 	move        	$s0, $a0
    3058:	2a002084 	ld.bu       	$a0, $a0, 8(0x8)
    305c:	0380041e 	ori         	$s7, $zero, 0x1
    3060:	001503dc 	move        	$s5, $s7
    3064:	40004080 	beqz        	$a0, 64(0x40)	# 30a4 <_ZN4core3fmt8builders11DebugStruct5field17h3a9035d1055c2414E+0x7c>
    3068:	290026fe 	st.b        	$s7, $s0, 9(0x9)
    306c:	290022fc 	st.b        	$s5, $s0, 8(0x8)
    3070:	001502e4 	move        	$a0, $s0
    3074:	28c18077 	ld.d        	$s0, $sp, 96(0x60)
    3078:	28c1a078 	ld.d        	$s1, $sp, 104(0x68)
    307c:	28c1c079 	ld.d        	$s2, $sp, 112(0x70)
    3080:	28c1e07a 	ld.d        	$s3, $sp, 120(0x78)
    3084:	28c2007b 	ld.d        	$s4, $sp, 128(0x80)
    3088:	28c2207c 	ld.d        	$s5, $sp, 136(0x88)
    308c:	28c2407d 	ld.d        	$s6, $sp, 144(0x90)
    3090:	28c2607e 	ld.d        	$s7, $sp, 152(0x98)
    3094:	28c2807f 	ld.d        	$s8, $sp, 160(0xa0)
    3098:	28c2a061 	ld.d        	$ra, $sp, 168(0xa8)
    309c:	02c2c063 	addi.d      	$sp, $sp, 176(0xb0)
    30a0:	4c000020 	jirl        	$zero, $ra, 0
    30a4:	001500bb 	move        	$s4, $a1
    30a8:	28c002e5 	ld.d        	$a1, $s0, 0
    30ac:	03802404 	ori         	$a0, $zero, 0x9
    30b0:	001500da 	move        	$s3, $a2
    30b4:	00150119 	move        	$s2, $a4
    30b8:	001500f8 	move        	$s1, $a3
    30bc:	382012e4 	ldx.bu      	$a0, $s0, $a0
    30c0:	2a00c0a6 	ld.bu       	$a2, $a1, 48(0x30)
    30c4:	0343fc84 	andi        	$a0, $a0, 0xff
    30c8:	034010c6 	andi        	$a2, $a2, 0x4
    30cc:	4400b8c0 	bnez        	$a2, 184(0xb8)	# 3184 <_ZN4core3fmt8builders11DebugStruct5field17h3a9035d1055c2414E+0x15c>
    30d0:	02400484 	sltui       	$a0, $a0, 1(0x1)
    30d4:	03800806 	ori         	$a2, $zero, 0x2
    30d8:	03800c07 	ori         	$a3, $zero, 0x3
    30dc:	00408084 	slli.w      	$a0, $a0, 0x0
    30e0:	001390c6 	masknez     	$a2, $a2, $a0
    30e4:	001310e8 	maskeqz     	$a4, $a3, $a0
    30e8:	1c000067 	pcaddu12i   	$a3, 3(0x3)
    30ec:	02cb3ce7 	addi.d      	$a3, $a3, 719(0x2cf)
    30f0:	001390e7 	masknez     	$a3, $a3, $a0
    30f4:	1c000069 	pcaddu12i   	$a5, 3(0x3)
    30f8:	02cb1529 	addi.d      	$a5, $a5, 709(0x2c5)
    30fc:	00151906 	or          	$a2, $a4, $a2
    3100:	00131124 	maskeqz     	$a0, $a5, $a0
    3104:	00151c87 	or          	$a3, $a0, $a3
    3108:	28c080a4 	ld.d        	$a0, $a1, 32(0x20)
    310c:	28c0a0a5 	ld.d        	$a1, $a1, 40(0x28)
    3110:	28c060a8 	ld.d        	$a4, $a1, 24(0x18)
    3114:	001500e5 	move        	$a1, $a3
    3118:	4c000101 	jirl        	$ra, $a4, 0
    311c:	001503dc 	move        	$s5, $s7
    3120:	5fff4880 	bne         	$a0, $zero, -184(0x3ff48)	# 3068 <_ZN4core3fmt8builders11DebugStruct5field17h3a9035d1055c2414E+0x40>
    3124:	28c002e5 	ld.d        	$a1, $s0, 0
    3128:	00150346 	move        	$a2, $s3
    312c:	28c080a4 	ld.d        	$a0, $a1, 32(0x20)
    3130:	28c0a0a5 	ld.d        	$a1, $a1, 40(0x28)
    3134:	28c060a7 	ld.d        	$a3, $a1, 24(0x18)
    3138:	00150365 	move        	$a1, $s4
    313c:	4c0000e1 	jirl        	$ra, $a3, 0
    3140:	001503dc 	move        	$s5, $s7
    3144:	5fff2480 	bne         	$a0, $zero, -220(0x3ff24)	# 3068 <_ZN4core3fmt8builders11DebugStruct5field17h3a9035d1055c2414E+0x40>
    3148:	28c002e5 	ld.d        	$a1, $s0, 0
    314c:	03800806 	ori         	$a2, $zero, 0x2
    3150:	28c080a4 	ld.d        	$a0, $a1, 32(0x20)
    3154:	28c0a0a5 	ld.d        	$a1, $a1, 40(0x28)
    3158:	28c060a7 	ld.d        	$a3, $a1, 24(0x18)
    315c:	1c000065 	pcaddu12i   	$a1, 3(0x3)
    3160:	02c95ca5 	addi.d      	$a1, $a1, 599(0x257)
    3164:	4c0000e1 	jirl        	$ra, $a3, 0
    3168:	001503dc 	move        	$s5, $s7
    316c:	5ffefc80 	bne         	$a0, $zero, -260(0x3fefc)	# 3068 <_ZN4core3fmt8builders11DebugStruct5field17h3a9035d1055c2414E+0x40>
    3170:	28c06326 	ld.d        	$a2, $s2, 24(0x18)
    3174:	28c002e5 	ld.d        	$a1, $s0, 0
    3178:	00150304 	move        	$a0, $s1
    317c:	4c0000c1 	jirl        	$ra, $a2, 0
    3180:	5000b800 	b           	184(0xb8)	# 3238 <_ZN4core3fmt8builders11DebugStruct5field17h3a9035d1055c2414E+0x210>
    3184:	44002c80 	bnez        	$a0, 44(0x2c)	# 31b0 <_ZN4core3fmt8builders11DebugStruct5field17h3a9035d1055c2414E+0x188>
    3188:	28c080a4 	ld.d        	$a0, $a1, 32(0x20)
    318c:	28c0a0a5 	ld.d        	$a1, $a1, 40(0x28)
    3190:	03800c06 	ori         	$a2, $zero, 0x3
    3194:	28c060a7 	ld.d        	$a3, $a1, 24(0x18)
    3198:	1c000065 	pcaddu12i   	$a1, 3(0x3)
    319c:	02c860a5 	addi.d      	$a1, $a1, 536(0x218)
    31a0:	4c0000e1 	jirl        	$ra, $a3, 0
    31a4:	001503dc 	move        	$s5, $s7
    31a8:	5ffec080 	bne         	$a0, $zero, -320(0x3fec0)	# 3068 <_ZN4core3fmt8builders11DebugStruct5field17h3a9035d1055c2414E+0x40>
    31ac:	28c002e5 	ld.d        	$a1, $s0, 0
    31b0:	03800004 	ori         	$a0, $zero, 0x0
    31b4:	0380041c 	ori         	$s5, $zero, 0x1
    31b8:	02c00066 	addi.d      	$a2, $sp, 0
    31bc:	02c07067 	addi.d      	$a3, $sp, 28(0x1c)
    31c0:	29c00064 	st.d        	$a0, $sp, 0
    31c4:	02c08064 	addi.d      	$a0, $sp, 32(0x20)
    31c8:	2900707c 	st.b        	$s5, $sp, 28(0x1c)
    31cc:	540ddc00 	bl          	3548(0xddc)	# 3fa8 <_ZN4core3fmt9Formatter8wrap_buf17hb1621ce3a8d23ec1E>
    31d0:	28c12064 	ld.d        	$a0, $sp, 72(0x48)
    31d4:	28c1007d 	ld.d        	$s6, $sp, 64(0x40)
    31d8:	00150365 	move        	$a1, $s4
    31dc:	00150346 	move        	$a2, $s3
    31e0:	28c0609f 	ld.d        	$s8, $a0, 24(0x18)
    31e4:	001503a4 	move        	$a0, $s6
    31e8:	4c0003e1 	jirl        	$ra, $s8, 0
    31ec:	5ffe7c80 	bne         	$a0, $zero, -388(0x3fe7c)	# 3068 <_ZN4core3fmt8builders11DebugStruct5field17h3a9035d1055c2414E+0x40>
    31f0:	1c000065 	pcaddu12i   	$a1, 3(0x3)
    31f4:	02c70ca5 	addi.d      	$a1, $a1, 451(0x1c3)
    31f8:	03800806 	ori         	$a2, $zero, 0x2
    31fc:	001503a4 	move        	$a0, $s6
    3200:	4c0003e1 	jirl        	$ra, $s8, 0
    3204:	47fe649f 	bnez        	$a0, -412(0x7ffe64)	# 3068 <_ZN4core3fmt8builders11DebugStruct5field17h3a9035d1055c2414E+0x40>
    3208:	28c06326 	ld.d        	$a2, $s2, 24(0x18)
    320c:	02c08065 	addi.d      	$a1, $sp, 32(0x20)
    3210:	00150304 	move        	$a0, $s1
    3214:	4c0000c1 	jirl        	$ra, $a2, 0
    3218:	5ffe5080 	bne         	$a0, $zero, -432(0x3fe50)	# 3068 <_ZN4core3fmt8builders11DebugStruct5field17h3a9035d1055c2414E+0x40>
    321c:	28c12064 	ld.d        	$a0, $sp, 72(0x48)
    3220:	03800806 	ori         	$a2, $zero, 0x2
    3224:	28c06087 	ld.d        	$a3, $a0, 24(0x18)
    3228:	28c10064 	ld.d        	$a0, $sp, 64(0x40)
    322c:	1c000065 	pcaddu12i   	$a1, 3(0x3)
    3230:	02c624a5 	addi.d      	$a1, $a1, 393(0x189)
    3234:	4c0000e1 	jirl        	$ra, $a3, 0
    3238:	0015009c 	move        	$s5, $a0
    323c:	53fe2fff 	b           	-468(0xffffe2c)	# 3068 <_ZN4core3fmt8builders11DebugStruct5field17h3a9035d1055c2414E+0x40>

0000000000003240 <_ZN4core3fmt8builders11DebugStruct6finish17h7b4a90f5a2e09a1fE>:
    3240:	02ffc063 	addi.d      	$sp, $sp, -16(0xff0)
    3244:	29c02061 	st.d        	$ra, $sp, 8(0x8)
    3248:	29c00077 	st.d        	$s0, $sp, 0
    324c:	00150097 	move        	$s0, $a0
    3250:	03802004 	ori         	$a0, $zero, 0x8
    3254:	382012e4 	ldx.bu      	$a0, $s0, $a0
    3258:	2a0026e5 	ld.bu       	$a1, $s0, 9(0x9)
    325c:	400054a0 	beqz        	$a1, 84(0x54)	# 32b0 <_ZN4core3fmt8builders11DebugStruct6finish17h7b4a90f5a2e09a1fE+0x70>
    3260:	0343fc84 	andi        	$a0, $a0, 0xff
    3264:	40000c80 	beqz        	$a0, 12(0xc)	# 3270 <_ZN4core3fmt8builders11DebugStruct6finish17h7b4a90f5a2e09a1fE+0x30>
    3268:	03800404 	ori         	$a0, $zero, 0x1
    326c:	50004000 	b           	64(0x40)	# 32ac <_ZN4core3fmt8builders11DebugStruct6finish17h7b4a90f5a2e09a1fE+0x6c>
    3270:	28c002e5 	ld.d        	$a1, $s0, 0
    3274:	28c0a0a6 	ld.d        	$a2, $a1, 40(0x28)
    3278:	28c080a4 	ld.d        	$a0, $a1, 32(0x20)
    327c:	2a00c0a5 	ld.bu       	$a1, $a1, 48(0x30)
    3280:	28c060c7 	ld.d        	$a3, $a2, 24(0x18)
    3284:	034010a5 	andi        	$a1, $a1, 0x4
    3288:	440014a0 	bnez        	$a1, 20(0x14)	# 329c <_ZN4core3fmt8builders11DebugStruct6finish17h7b4a90f5a2e09a1fE+0x5c>
    328c:	1c000065 	pcaddu12i   	$a1, 3(0x3)
    3290:	02c4c4a5 	addi.d      	$a1, $a1, 305(0x131)
    3294:	03800806 	ori         	$a2, $zero, 0x2
    3298:	50001000 	b           	16(0x10)	# 32a8 <_ZN4core3fmt8builders11DebugStruct6finish17h7b4a90f5a2e09a1fE+0x68>
    329c:	1c000065 	pcaddu12i   	$a1, 3(0x3)
    32a0:	02c480a5 	addi.d      	$a1, $a1, 288(0x120)
    32a4:	03800406 	ori         	$a2, $zero, 0x1
    32a8:	4c0000e1 	jirl        	$ra, $a3, 0
    32ac:	290022e4 	st.b        	$a0, $s0, 8(0x8)
    32b0:	28c00077 	ld.d        	$s0, $sp, 0
    32b4:	28c02061 	ld.d        	$ra, $sp, 8(0x8)
    32b8:	0343fc84 	andi        	$a0, $a0, 0xff
    32bc:	00129004 	sltu        	$a0, $zero, $a0
    32c0:	02c04063 	addi.d      	$sp, $sp, 16(0x10)
    32c4:	4c000020 	jirl        	$zero, $ra, 0

00000000000032c8 <_ZN4core3fmt8builders15debug_tuple_new17h930958c2db6c8d0dE>:
    32c8:	02ff8063 	addi.d      	$sp, $sp, -32(0xfe0)
    32cc:	29c06061 	st.d        	$ra, $sp, 24(0x18)
    32d0:	29c04079 	st.d        	$s2, $sp, 16(0x10)
    32d4:	29c02078 	st.d        	$s1, $sp, 8(0x8)
    32d8:	29c00077 	st.d        	$s0, $sp, 0
    32dc:	00150099 	move        	$s2, $a0
    32e0:	001500b8 	move        	$s1, $a1
    32e4:	28c080a4 	ld.d        	$a0, $a1, 32(0x20)
    32e8:	28c0a0a5 	ld.d        	$a1, $a1, 40(0x28)
    32ec:	001500f7 	move        	$s0, $a3
    32f0:	28c060a7 	ld.d        	$a3, $a1, 24(0x18)
    32f4:	001500c5 	move        	$a1, $a2
    32f8:	001502e6 	move        	$a2, $s0
    32fc:	4c0000e1 	jirl        	$ra, $a3, 0
    3300:	29004324 	st.b        	$a0, $s2, 16(0x10)
    3304:	024006e4 	sltui       	$a0, $s0, 1(0x1)
    3308:	29c00338 	st.d        	$s1, $s2, 0
    330c:	28c00077 	ld.d        	$s0, $sp, 0
    3310:	28c02078 	ld.d        	$s1, $sp, 8(0x8)
    3314:	28c06061 	ld.d        	$ra, $sp, 24(0x18)
    3318:	29004724 	st.b        	$a0, $s2, 17(0x11)
    331c:	03800004 	ori         	$a0, $zero, 0x0
    3320:	29c02324 	st.d        	$a0, $s2, 8(0x8)
    3324:	00150324 	move        	$a0, $s2
    3328:	28c04079 	ld.d        	$s2, $sp, 16(0x10)
    332c:	02c08063 	addi.d      	$sp, $sp, 32(0x20)
    3330:	4c000020 	jirl        	$zero, $ra, 0
    3334:	00000000 	0x00000000

0000000000003338 <_ZN4core3fmt8builders10DebugTuple5field17h7eba59ee16627dbfE>:
    3338:	02fdc063 	addi.d      	$sp, $sp, -144(0xf70)
    333c:	29c22061 	st.d        	$ra, $sp, 136(0x88)
    3340:	29c2007b 	st.d        	$s4, $sp, 128(0x80)
    3344:	29c1e07a 	st.d        	$s3, $sp, 120(0x78)
    3348:	29c1c079 	st.d        	$s2, $sp, 112(0x70)
    334c:	29c1a078 	st.d        	$s1, $sp, 104(0x68)
    3350:	29c18077 	st.d        	$s0, $sp, 96(0x60)
    3354:	00150097 	move        	$s0, $a0
    3358:	2a004084 	ld.bu       	$a0, $a0, 16(0x10)
    335c:	03800418 	ori         	$s1, $zero, 0x1
    3360:	44010480 	bnez        	$a0, 260(0x104)	# 3464 <_ZN4core3fmt8builders10DebugTuple5field17h7eba59ee16627dbfE+0x12c>
    3364:	001500b9 	move        	$s2, $a1
    3368:	28c002e5 	ld.d        	$a1, $s0, 0
    336c:	001500da 	move        	$s3, $a2
    3370:	28c022e4 	ld.d        	$a0, $s0, 8(0x8)
    3374:	2a00c0a6 	ld.bu       	$a2, $a1, 48(0x30)
    3378:	034010c6 	andi        	$a2, $a2, 0x4
    337c:	440068c0 	bnez        	$a2, 104(0x68)	# 33e4 <_ZN4core3fmt8builders10DebugTuple5field17h7eba59ee16627dbfE+0xac>
    3380:	02400484 	sltui       	$a0, $a0, 1(0x1)
    3384:	03800806 	ori         	$a2, $zero, 0x2
    3388:	03800407 	ori         	$a3, $zero, 0x1
    338c:	00408084 	slli.w      	$a0, $a0, 0x0
    3390:	001390c6 	masknez     	$a2, $a2, $a0
    3394:	001310e8 	maskeqz     	$a4, $a3, $a0
    3398:	1c000067 	pcaddu12i   	$a3, 3(0x3)
    339c:	02c07ce7 	addi.d      	$a3, $a3, 31(0x1f)
    33a0:	001390e7 	masknez     	$a3, $a3, $a0
    33a4:	1c000069 	pcaddu12i   	$a5, 3(0x3)
    33a8:	02c07529 	addi.d      	$a5, $a5, 29(0x1d)
    33ac:	00151906 	or          	$a2, $a4, $a2
    33b0:	00131124 	maskeqz     	$a0, $a5, $a0
    33b4:	00151c87 	or          	$a3, $a0, $a3
    33b8:	28c080a4 	ld.d        	$a0, $a1, 32(0x20)
    33bc:	28c0a0a5 	ld.d        	$a1, $a1, 40(0x28)
    33c0:	28c060a8 	ld.d        	$a4, $a1, 24(0x18)
    33c4:	001500e5 	move        	$a1, $a3
    33c8:	4c000101 	jirl        	$ra, $a4, 0
    33cc:	5c009880 	bne         	$a0, $zero, 152(0x98)	# 3464 <_ZN4core3fmt8builders10DebugTuple5field17h7eba59ee16627dbfE+0x12c>
    33d0:	28c06346 	ld.d        	$a2, $s3, 24(0x18)
    33d4:	28c002e5 	ld.d        	$a1, $s0, 0
    33d8:	00150324 	move        	$a0, $s2
    33dc:	4c0000c1 	jirl        	$ra, $a2, 0
    33e0:	50008000 	b           	128(0x80)	# 3460 <_ZN4core3fmt8builders10DebugTuple5field17h7eba59ee16627dbfE+0x128>
    33e4:	44002880 	bnez        	$a0, 40(0x28)	# 340c <_ZN4core3fmt8builders10DebugTuple5field17h7eba59ee16627dbfE+0xd4>
    33e8:	28c080a4 	ld.d        	$a0, $a1, 32(0x20)
    33ec:	28c0a0a5 	ld.d        	$a1, $a1, 40(0x28)
    33f0:	03800806 	ori         	$a2, $zero, 0x2
    33f4:	28c060a7 	ld.d        	$a3, $a1, 24(0x18)
    33f8:	1c000065 	pcaddu12i   	$a1, 3(0x3)
    33fc:	02ff1ca5 	addi.d      	$a1, $a1, -57(0xfc7)
    3400:	4c0000e1 	jirl        	$ra, $a3, 0
    3404:	5c006080 	bne         	$a0, $zero, 96(0x60)	# 3464 <_ZN4core3fmt8builders10DebugTuple5field17h7eba59ee16627dbfE+0x12c>
    3408:	28c002e5 	ld.d        	$a1, $s0, 0
    340c:	03800004 	ori         	$a0, $zero, 0x0
    3410:	02c0807b 	addi.d      	$s4, $sp, 32(0x20)
    3414:	03800418 	ori         	$s1, $zero, 0x1
    3418:	02c00066 	addi.d      	$a2, $sp, 0
    341c:	02c07067 	addi.d      	$a3, $sp, 28(0x1c)
    3420:	29c00064 	st.d        	$a0, $sp, 0
    3424:	00150364 	move        	$a0, $s4
    3428:	29007078 	st.b        	$s1, $sp, 28(0x1c)
    342c:	540b7c00 	bl          	2940(0xb7c)	# 3fa8 <_ZN4core3fmt9Formatter8wrap_buf17hb1621ce3a8d23ec1E>
    3430:	28c06346 	ld.d        	$a2, $s3, 24(0x18)
    3434:	00150324 	move        	$a0, $s2
    3438:	00150365 	move        	$a1, $s4
    343c:	4c0000c1 	jirl        	$ra, $a2, 0
    3440:	5c002480 	bne         	$a0, $zero, 36(0x24)	# 3464 <_ZN4core3fmt8builders10DebugTuple5field17h7eba59ee16627dbfE+0x12c>
    3444:	28c12064 	ld.d        	$a0, $sp, 72(0x48)
    3448:	03800806 	ori         	$a2, $zero, 0x2
    344c:	28c06087 	ld.d        	$a3, $a0, 24(0x18)
    3450:	28c10064 	ld.d        	$a0, $sp, 64(0x40)
    3454:	1c000065 	pcaddu12i   	$a1, 3(0x3)
    3458:	02fd84a5 	addi.d      	$a1, $a1, -159(0xf61)
    345c:	4c0000e1 	jirl        	$ra, $a3, 0
    3460:	00150098 	move        	$s1, $a0
    3464:	290042f8 	st.b        	$s1, $s0, 16(0x10)
    3468:	28c1a078 	ld.d        	$s1, $sp, 104(0x68)
    346c:	28c1c079 	ld.d        	$s2, $sp, 112(0x70)
    3470:	28c1e07a 	ld.d        	$s3, $sp, 120(0x78)
    3474:	28c2007b 	ld.d        	$s4, $sp, 128(0x80)
    3478:	28c22061 	ld.d        	$ra, $sp, 136(0x88)
    347c:	28c022e4 	ld.d        	$a0, $s0, 8(0x8)
    3480:	02c00484 	addi.d      	$a0, $a0, 1(0x1)
    3484:	29c022e4 	st.d        	$a0, $s0, 8(0x8)
    3488:	001502e4 	move        	$a0, $s0
    348c:	28c18077 	ld.d        	$s0, $sp, 96(0x60)
    3490:	02c24063 	addi.d      	$sp, $sp, 144(0x90)
    3494:	4c000020 	jirl        	$zero, $ra, 0

0000000000003498 <_ZN4core3fmt8builders10DebugTuple6finish17h1d03b6ee6f22100bE>:
    3498:	02ff8063 	addi.d      	$sp, $sp, -32(0xfe0)
    349c:	29c06061 	st.d        	$ra, $sp, 24(0x18)
    34a0:	29c04078 	st.d        	$s1, $sp, 16(0x10)
    34a4:	29c02077 	st.d        	$s0, $sp, 8(0x8)
    34a8:	00150097 	move        	$s0, $a0
    34ac:	03804004 	ori         	$a0, $zero, 0x10
    34b0:	382012f8 	ldx.bu      	$s1, $s0, $a0
    34b4:	28c022e4 	ld.d        	$a0, $s0, 8(0x8)
    34b8:	40007880 	beqz        	$a0, 120(0x78)	# 3530 <_ZN4core3fmt8builders10DebugTuple6finish17h1d03b6ee6f22100bE+0x98>
    34bc:	0343ff05 	andi        	$a1, $s1, 0xff
    34c0:	03800418 	ori         	$s1, $zero, 0x1
    34c4:	440068a0 	bnez        	$a1, 104(0x68)	# 352c <_ZN4core3fmt8builders10DebugTuple6finish17h1d03b6ee6f22100bE+0x94>
    34c8:	03800405 	ori         	$a1, $zero, 0x1
    34cc:	5c003c85 	bne         	$a0, $a1, 60(0x3c)	# 3508 <_ZN4core3fmt8builders10DebugTuple6finish17h1d03b6ee6f22100bE+0x70>
    34d0:	2a0046e4 	ld.bu       	$a0, $s0, 17(0x11)
    34d4:	40003480 	beqz        	$a0, 52(0x34)	# 3508 <_ZN4core3fmt8builders10DebugTuple6finish17h1d03b6ee6f22100bE+0x70>
    34d8:	28c002e5 	ld.d        	$a1, $s0, 0
    34dc:	2a00c0a4 	ld.bu       	$a0, $a1, 48(0x30)
    34e0:	03401084 	andi        	$a0, $a0, 0x4
    34e4:	44002480 	bnez        	$a0, 36(0x24)	# 3508 <_ZN4core3fmt8builders10DebugTuple6finish17h1d03b6ee6f22100bE+0x70>
    34e8:	28c080a4 	ld.d        	$a0, $a1, 32(0x20)
    34ec:	28c0a0a5 	ld.d        	$a1, $a1, 40(0x28)
    34f0:	03800406 	ori         	$a2, $zero, 0x1
    34f4:	28c060a7 	ld.d        	$a3, $a1, 24(0x18)
    34f8:	1c000065 	pcaddu12i   	$a1, 3(0x3)
    34fc:	02fb28a5 	addi.d      	$a1, $a1, -310(0xeca)
    3500:	4c0000e1 	jirl        	$ra, $a3, 0
    3504:	44002880 	bnez        	$a0, 40(0x28)	# 352c <_ZN4core3fmt8builders10DebugTuple6finish17h1d03b6ee6f22100bE+0x94>
    3508:	28c002e5 	ld.d        	$a1, $s0, 0
    350c:	03800406 	ori         	$a2, $zero, 0x1
    3510:	28c080a4 	ld.d        	$a0, $a1, 32(0x20)
    3514:	28c0a0a5 	ld.d        	$a1, $a1, 40(0x28)
    3518:	28c060a7 	ld.d        	$a3, $a1, 24(0x18)
    351c:	1c000065 	pcaddu12i   	$a1, 3(0x3)
    3520:	02fa9ca5 	addi.d      	$a1, $a1, -345(0xea7)
    3524:	4c0000e1 	jirl        	$ra, $a3, 0
    3528:	00150098 	move        	$s1, $a0
    352c:	290042f8 	st.b        	$s1, $s0, 16(0x10)
    3530:	0343ff04 	andi        	$a0, $s1, 0xff
    3534:	28c02077 	ld.d        	$s0, $sp, 8(0x8)
    3538:	28c04078 	ld.d        	$s1, $sp, 16(0x10)
    353c:	28c06061 	ld.d        	$ra, $sp, 24(0x18)
    3540:	00129004 	sltu        	$a0, $zero, $a0
    3544:	02c08063 	addi.d      	$sp, $sp, 32(0x20)
    3548:	4c000020 	jirl        	$zero, $ra, 0
    354c:	00000000 	0x00000000

0000000000003550 <_ZN4core3str16slice_error_fail17h007062f4ad75a26cE>:
    3550:	02fbc063 	addi.d      	$sp, $sp, -272(0xef0)
    3554:	29c42061 	st.d        	$ra, $sp, 264(0x108)
    3558:	29c4007c 	st.d        	$s5, $sp, 256(0x100)
    355c:	29c3e07b 	st.d        	$s4, $sp, 248(0xf8)
    3560:	29c3c07a 	st.d        	$s3, $sp, 240(0xf0)
    3564:	29c3a079 	st.d        	$s2, $sp, 232(0xe8)
    3568:	29c38078 	st.d        	$s1, $sp, 224(0xe0)
    356c:	29c36077 	st.d        	$s0, $sp, 216(0xd8)
    3570:	001500ba 	move        	$s3, $a1
    3574:	0015009b 	move        	$s4, $a0
    3578:	02c22078 	addi.d      	$s1, $sp, 136(0x88)
    357c:	001500f9 	move        	$s2, $a3
    3580:	29c04067 	st.d        	$a3, $sp, 16(0x10)
    3584:	001500dc 	move        	$s5, $a2
    3588:	29c02066 	st.d        	$a2, $sp, 8(0x8)
    358c:	03840007 	ori         	$a3, $zero, 0x100
    3590:	00150117 	move        	$s0, $a4
    3594:	00150304 	move        	$a0, $s1
    3598:	00150365 	move        	$a1, $s4
    359c:	00150346 	move        	$a2, $s3
    35a0:	540b8800 	bl          	2952(0xb88)	# 4128 <_ZN4core3str11validations25truncate_to_char_boundary17he03de00cdc19b12cE>
    35a4:	2a022066 	ld.bu       	$a2, $sp, 136(0x88)
    35a8:	1c000068 	pcaddu12i   	$a4, 3(0x3)
    35ac:	02f93108 	addi.d      	$a4, $a4, -436(0xe4c)
    35b0:	1c000069 	pcaddu12i   	$a5, 3(0x3)
    35b4:	02f8fd29 	addi.d      	$a5, $a5, -449(0xe3f)
    35b8:	28c2606a 	ld.d        	$a6, $sp, 152(0x98)
    35bc:	03800004 	ori         	$a0, $zero, 0x0
    35c0:	03801405 	ori         	$a1, $zero, 0x5
    35c4:	0012f347 	sltu        	$a3, $s3, $s5
    35c8:	29c0806a 	st.d        	$a6, $sp, 32(0x20)
    35cc:	28c2406a 	ld.d        	$a6, $sp, 144(0x90)
    35d0:	024004c6 	sltui       	$a2, $a2, 1(0x1)
    35d4:	004080c6 	slli.w      	$a2, $a2, 0x0
    35d8:	29c0606a 	st.d        	$a6, $sp, 24(0x18)
    35dc:	001398aa 	masknez     	$a6, $a1, $a2
    35e0:	0013188b 	maskeqz     	$a7, $a0, $a2
    35e4:	0015296a 	or          	$a6, $a7, $a6
    35e8:	29c0c06a 	st.d        	$a6, $sp, 48(0x30)
    35ec:	00139929 	masknez     	$a5, $a5, $a2
    35f0:	00131906 	maskeqz     	$a2, $a4, $a2
    35f4:	001524c6 	or          	$a2, $a2, $a5
    35f8:	29c0a066 	st.d        	$a2, $sp, 40(0x28)
    35fc:	5c0234e0 	bne         	$a3, $zero, 564(0x234)	# 3830 <_ZN4core3str16slice_error_fail17h007062f4ad75a26cE+0x2e0>
    3600:	0012e746 	sltu        	$a2, $s3, $s2
    3604:	5c0228c0 	bne         	$a2, $zero, 552(0x228)	# 382c <_ZN4core3str16slice_error_fail17h007062f4ad75a26cE+0x2dc>
    3608:	0012f326 	sltu        	$a2, $s2, $s5
    360c:	5c0280c0 	bne         	$a2, $zero, 640(0x280)	# 388c <_ZN4core3str16slice_error_fail17h007062f4ad75a26cE+0x33c>
    3610:	40002780 	beqz        	$s5, 36(0x24)	# 3634 <_ZN4core3str16slice_error_fail17h007062f4ad75a26cE+0xe4>
    3614:	6c001f9a 	bgeu        	$s5, $s3, 28(0x1c)	# 3630 <_ZN4core3str16slice_error_fail17h007062f4ad75a26cE+0xe0>
    3618:	38007366 	ldx.b       	$a2, $s4, $s5
    361c:	023f00c6 	slti        	$a2, $a2, -64(0xfc0)
    3620:	580014c0 	beq         	$a2, $zero, 20(0x14)	# 3634 <_ZN4core3str16slice_error_fail17h007062f4ad75a26cE+0xe4>
    3624:	00150399 	move        	$s2, $s5
    3628:	29c0e07c 	st.d        	$s5, $sp, 56(0x38)
    362c:	50004c00 	b           	76(0x4c)	# 3678 <_ZN4core3str16slice_error_fail17h007062f4ad75a26cE+0x128>
    3630:	5ffff79a 	bne         	$s5, $s3, -12(0x3fff4)	# 3624 <_ZN4core3str16slice_error_fail17h007062f4ad75a26cE+0xd4>
    3634:	29c0e079 	st.d        	$s2, $sp, 56(0x38)
    3638:	44004320 	bnez        	$s2, 64(0x40)	# 3678 <_ZN4core3str16slice_error_fail17h007062f4ad75a26cE+0x128>
    363c:	00150099 	move        	$s2, $a0
    3640:	5800433a 	beq         	$s2, $s3, 64(0x40)	# 3680 <_ZN4core3str16slice_error_fail17h007062f4ad75a26cE+0x130>
    3644:	0010e769 	add.d       	$a5, $s4, $s2
    3648:	28000128 	ld.b        	$a4, $a5, 0
    364c:	0343fd06 	andi        	$a2, $a4, 0xff
    3650:	02000107 	slti        	$a3, $a4, 0
    3654:	5c0044e0 	bne         	$a3, $zero, 68(0x44)	# 3698 <_ZN4core3str16slice_error_fail17h007062f4ad75a26cE+0x148>
    3658:	29811066 	st.w        	$a2, $sp, 68(0x44)
    365c:	03800406 	ori         	$a2, $zero, 0x1
    3660:	50013800 	b           	312(0x138)	# 3798 <_ZN4core3str16slice_error_fail17h007062f4ad75a26cE+0x248>
    3664:	38006766 	ldx.b       	$a2, $s4, $s2
    3668:	023f00c6 	slti        	$a2, $a2, -64(0xfc0)
    366c:	5bffd4c0 	beq         	$a2, $zero, -44(0x3ffd4)	# 3640 <_ZN4core3str16slice_error_fail17h007062f4ad75a26cE+0xf0>
    3670:	02ffff39 	addi.d      	$s2, $s2, -1(0xfff)
    3674:	43ffcb3f 	beqz        	$s2, -56(0x7fffc8)	# 363c <_ZN4core3str16slice_error_fail17h007062f4ad75a26cE+0xec>
    3678:	6bffef3a 	bltu        	$s2, $s3, -20(0x3ffec)	# 3664 <_ZN4core3str16slice_error_fail17h007062f4ad75a26cE+0x114>
    367c:	5ffff759 	bne         	$s3, $s2, -12(0x3fff4)	# 3670 <_ZN4core3str16slice_error_fail17h007062f4ad75a26cE+0x120>
    3680:	1c000064 	pcaddu12i   	$a0, 3(0x3)
    3684:	02f51084 	addi.d      	$a0, $a0, -700(0xd44)
    3688:	0380ac05 	ori         	$a1, $zero, 0x2b
    368c:	001502e6 	move        	$a2, $s0
    3690:	57e753ff 	bl          	-6320(0xfffe750)	# 1de0 <_ZN4core9panicking5panic17h2978341b5c47dc6dE>
    3694:	002a0000 	break       	0x0
    3698:	0010eb67 	add.d       	$a3, $s4, $s3
    369c:	02c0052a 	addi.d      	$a6, $a5, 1(0x1)
    36a0:	5c002547 	bne         	$a6, $a3, 36(0x24)	# 36c4 <_ZN4core3str16slice_error_fail17h007062f4ad75a26cE+0x174>
    36a4:	03800009 	ori         	$a5, $zero, 0x0
    36a8:	001500ea 	move        	$a6, $a3
    36ac:	03407d08 	andi        	$a4, $a4, 0x1f
    36b0:	024380cb 	sltui       	$a7, $a2, 224(0xe0)
    36b4:	58002960 	beq         	$a7, $zero, 40(0x28)	# 36dc <_ZN4core3str16slice_error_fail17h007062f4ad75a26cE+0x18c>
    36b8:	00409906 	slli.w      	$a2, $a4, 0x6
    36bc:	00151926 	or          	$a2, $a5, $a2
    36c0:	50009400 	b           	148(0x94)	# 3754 <_ZN4core3str16slice_error_fail17h007062f4ad75a26cE+0x204>
    36c4:	02c0092a 	addi.d      	$a6, $a5, 2(0x2)
    36c8:	2a000529 	ld.bu       	$a5, $a5, 1(0x1)
    36cc:	0340fd29 	andi        	$a5, $a5, 0x3f
    36d0:	03407d08 	andi        	$a4, $a4, 0x1f
    36d4:	024380cb 	sltui       	$a7, $a2, 224(0xe0)
    36d8:	5fffe160 	bne         	$a7, $zero, -32(0x3ffe0)	# 36b8 <_ZN4core3str16slice_error_fail17h007062f4ad75a26cE+0x168>
    36dc:	5c002947 	bne         	$a6, $a3, 40(0x28)	# 3704 <_ZN4core3str16slice_error_fail17h007062f4ad75a26cE+0x1b4>
    36e0:	0380000a 	ori         	$a6, $zero, 0x0
    36e4:	001500eb 	move        	$a7, $a3
    36e8:	00409929 	slli.w      	$a5, $a5, 0x6
    36ec:	00152549 	or          	$a5, $a6, $a5
    36f0:	0383c00a 	ori         	$a6, $zero, 0xf0
    36f4:	6c002cca 	bgeu        	$a2, $a6, 44(0x2c)	# 3720 <_ZN4core3str16slice_error_fail17h007062f4ad75a26cE+0x1d0>
    36f8:	0040b106 	slli.w      	$a2, $a4, 0xc
    36fc:	00151926 	or          	$a2, $a5, $a2
    3700:	50005400 	b           	84(0x54)	# 3754 <_ZN4core3str16slice_error_fail17h007062f4ad75a26cE+0x204>
    3704:	02c0054b 	addi.d      	$a7, $a6, 1(0x1)
    3708:	2a00014a 	ld.bu       	$a6, $a6, 0
    370c:	0340fd4a 	andi        	$a6, $a6, 0x3f
    3710:	00409929 	slli.w      	$a5, $a5, 0x6
    3714:	00152549 	or          	$a5, $a6, $a5
    3718:	0383c00a 	ori         	$a6, $zero, 0xf0
    371c:	6bffdcca 	bltu        	$a2, $a6, -36(0x3ffdc)	# 36f8 <_ZN4core3str16slice_error_fail17h007062f4ad75a26cE+0x1a8>
    3720:	5c000d67 	bne         	$a7, $a3, 12(0xc)	# 372c <_ZN4core3str16slice_error_fail17h007062f4ad75a26cE+0x1dc>
    3724:	03800006 	ori         	$a2, $zero, 0x0
    3728:	50000c00 	b           	12(0xc)	# 3734 <_ZN4core3str16slice_error_fail17h007062f4ad75a26cE+0x1e4>
    372c:	2a000166 	ld.bu       	$a2, $a7, 0
    3730:	0340fcc6 	andi        	$a2, $a2, 0x3f
    3734:	0040c907 	slli.w      	$a3, $a4, 0x12
    3738:	14003808 	lu12i.w     	$a4, 448(0x1c0)
    373c:	0014a0e7 	and         	$a3, $a3, $a4
    3740:	00409928 	slli.w      	$a4, $a5, 0x6
    3744:	00151d07 	or          	$a3, $a4, $a3
    3748:	001518e6 	or          	$a2, $a3, $a2
    374c:	14002207 	lu12i.w     	$a3, 272(0x110)
    3750:	5bff30c7 	beq         	$a2, $a3, -208(0x3ff30)	# 3680 <_ZN4core3str16slice_error_fail17h007062f4ad75a26cE+0x130>
    3754:	03820007 	ori         	$a3, $zero, 0x80
    3758:	29811066 	st.w        	$a2, $sp, 68(0x44)
    375c:	6c000cc7 	bgeu        	$a2, $a3, 12(0xc)	# 3768 <_ZN4core3str16slice_error_fail17h007062f4ad75a26cE+0x218>
    3760:	03800406 	ori         	$a2, $zero, 0x1
    3764:	50003400 	b           	52(0x34)	# 3798 <_ZN4core3str16slice_error_fail17h007062f4ad75a26cE+0x248>
    3768:	03a00007 	ori         	$a3, $zero, 0x800
    376c:	6c000cc7 	bgeu        	$a2, $a3, 12(0xc)	# 3778 <_ZN4core3str16slice_error_fail17h007062f4ad75a26cE+0x228>
    3770:	03800806 	ori         	$a2, $zero, 0x2
    3774:	50002400 	b           	36(0x24)	# 3798 <_ZN4core3str16slice_error_fail17h007062f4ad75a26cE+0x248>
    3778:	14000207 	lu12i.w     	$a3, 16(0x10)
    377c:	03800c08 	ori         	$a4, $zero, 0x3
    3780:	00129cc6 	sltu        	$a2, $a2, $a3
    3784:	03801007 	ori         	$a3, $zero, 0x4
    3788:	004080c6 	slli.w      	$a2, $a2, 0x0
    378c:	001398e7 	masknez     	$a3, $a3, $a2
    3790:	00131906 	maskeqz     	$a2, $a4, $a2
    3794:	00151cc6 	or          	$a2, $a2, $a3
    3798:	0010e4c6 	add.d       	$a2, $a2, $s2
    379c:	29c12079 	st.d        	$s2, $sp, 72(0x48)
    37a0:	02c1206a 	addi.d      	$a6, $sp, 72(0x48)
    37a4:	02c0606c 	addi.d      	$t0, $sp, 24(0x18)
    37a8:	29c14066 	st.d        	$a2, $sp, 80(0x50)
    37ac:	1c000027 	pcaddu12i   	$a3, 1(0x1)
    37b0:	02e590e7 	addi.d      	$a3, $a3, -1692(0x964)
    37b4:	1c0000a8 	pcaddu12i   	$a4, 5(0x5)
    37b8:	02ef1108 	addi.d      	$a4, $a4, -1084(0xbc4)
    37bc:	1c0000a9 	pcaddu12i   	$a5, 5(0x5)
    37c0:	28ff3129 	ld.d        	$a5, $a5, -52(0xfcc)
    37c4:	1c00002b 	pcaddu12i   	$a7, 1(0x1)
    37c8:	02fe716b 	addi.d      	$a7, $a7, -100(0xf9c)
    37cc:	29c20065 	st.d        	$a1, $sp, 128(0x80)
    37d0:	29c1e078 	st.d        	$s1, $sp, 120(0x78)
    37d4:	29c1a064 	st.d        	$a0, $sp, 104(0x68)
    37d8:	02c0a066 	addi.d      	$a2, $sp, 40(0x28)
    37dc:	02c11064 	addi.d      	$a0, $sp, 68(0x44)
    37e0:	29c18065 	st.d        	$a1, $sp, 96(0x60)
    37e4:	29c34067 	st.d        	$a3, $sp, 208(0xd0)
    37e8:	29c32066 	st.d        	$a2, $sp, 200(0xc8)
    37ec:	29c30067 	st.d        	$a3, $sp, 192(0xc0)
    37f0:	29c2e06c 	st.d        	$t0, $sp, 184(0xb8)
    37f4:	29c2c06b 	st.d        	$a7, $sp, 176(0xb0)
    37f8:	29c2a06a 	st.d        	$a6, $sp, 168(0xa8)
    37fc:	29c28069 	st.d        	$a5, $sp, 160(0xa0)
    3800:	29c16068 	st.d        	$a4, $sp, 88(0x58)
    3804:	29c26064 	st.d        	$a0, $sp, 152(0x98)
    3808:	1c0000a4 	pcaddu12i   	$a0, 5(0x5)
    380c:	28fde084 	ld.d        	$a0, $a0, -136(0xf78)
    3810:	29c24064 	st.d        	$a0, $sp, 144(0x90)
    3814:	02c0e064 	addi.d      	$a0, $sp, 56(0x38)
    3818:	29c22064 	st.d        	$a0, $sp, 136(0x88)
    381c:	02c16064 	addi.d      	$a0, $sp, 88(0x58)
    3820:	001502e5 	move        	$a1, $s0
    3824:	57e66fff 	bl          	-6548(0xfffe66c)	# 1e90 <_ZN4core9panicking9panic_fmt17h7deed37ee899fd65E>
    3828:	002a0000 	break       	0x0
    382c:	0015033c 	move        	$s5, $s2
    3830:	29c1207c 	st.d        	$s5, $sp, 72(0x48)
    3834:	1c000025 	pcaddu12i   	$a1, 1(0x1)
    3838:	02e370a5 	addi.d      	$a1, $a1, -1828(0x8dc)
    383c:	02c0a064 	addi.d      	$a0, $sp, 40(0x28)
    3840:	1c0000a6 	pcaddu12i   	$a2, 5(0x5)
    3844:	02eb20c6 	addi.d      	$a2, $a2, -1336(0xac8)
    3848:	03800c08 	ori         	$a4, $zero, 0x3
    384c:	03800007 	ori         	$a3, $zero, 0x0
    3850:	29c2c065 	st.d        	$a1, $sp, 176(0xb0)
    3854:	29c2a064 	st.d        	$a0, $sp, 168(0xa8)
    3858:	02c06064 	addi.d      	$a0, $sp, 24(0x18)
    385c:	29c20068 	st.d        	$a4, $sp, 128(0x80)
    3860:	29c1e078 	st.d        	$s1, $sp, 120(0x78)
    3864:	29c1a067 	st.d        	$a3, $sp, 104(0x68)
    3868:	29c18068 	st.d        	$a4, $sp, 96(0x60)
    386c:	29c28065 	st.d        	$a1, $sp, 160(0xa0)
    3870:	29c16066 	st.d        	$a2, $sp, 88(0x58)
    3874:	29c26064 	st.d        	$a0, $sp, 152(0x98)
    3878:	1c0000a4 	pcaddu12i   	$a0, 5(0x5)
    387c:	28fc2084 	ld.d        	$a0, $a0, -248(0xf08)
    3880:	29c24064 	st.d        	$a0, $sp, 144(0x90)
    3884:	02c12064 	addi.d      	$a0, $sp, 72(0x48)
    3888:	53ff93ff 	b           	-112(0xfffff90)	# 3818 <_ZN4core3str16slice_error_fail17h007062f4ad75a26cE+0x2c8>
    388c:	1c000025 	pcaddu12i   	$a1, 1(0x1)
    3890:	02e210a5 	addi.d      	$a1, $a1, -1916(0x884)
    3894:	1c0000a6 	pcaddu12i   	$a2, 5(0x5)
    3898:	02ea90c6 	addi.d      	$a2, $a2, -1372(0xaa4)
    389c:	03801008 	ori         	$a4, $zero, 0x4
    38a0:	02c0a064 	addi.d      	$a0, $sp, 40(0x28)
    38a4:	03800007 	ori         	$a3, $zero, 0x0
    38a8:	02c06069 	addi.d      	$a5, $sp, 24(0x18)
    38ac:	29c20068 	st.d        	$a4, $sp, 128(0x80)
    38b0:	29c1e078 	st.d        	$s1, $sp, 120(0x78)
    38b4:	29c1a067 	st.d        	$a3, $sp, 104(0x68)
    38b8:	29c18068 	st.d        	$a4, $sp, 96(0x60)
    38bc:	29c30065 	st.d        	$a1, $sp, 192(0xc0)
    38c0:	29c2e064 	st.d        	$a0, $sp, 184(0xb8)
    38c4:	29c2c065 	st.d        	$a1, $sp, 176(0xb0)
    38c8:	29c16066 	st.d        	$a2, $sp, 88(0x58)
    38cc:	29c2a069 	st.d        	$a5, $sp, 168(0xa8)
    38d0:	1c0000a4 	pcaddu12i   	$a0, 5(0x5)
    38d4:	28fac084 	ld.d        	$a0, $a0, -336(0xeb0)
    38d8:	02c04065 	addi.d      	$a1, $sp, 16(0x10)
    38dc:	29c28064 	st.d        	$a0, $sp, 160(0xa0)
    38e0:	29c26065 	st.d        	$a1, $sp, 152(0x98)
    38e4:	29c24064 	st.d        	$a0, $sp, 144(0x90)
    38e8:	02c02064 	addi.d      	$a0, $sp, 8(0x8)
    38ec:	53ff2fff 	b           	-212(0xfffff2c)	# 3818 <_ZN4core3str16slice_error_fail17h007062f4ad75a26cE+0x2c8>

00000000000038f0 <_ZN4core7unicode9printable5check17h6520e0094313856bE>:
    38f0:	02ff0063 	addi.d      	$sp, $sp, -64(0xfc0)
    38f4:	29c0e061 	st.d        	$ra, $sp, 56(0x38)
    38f8:	29c0c07b 	st.d        	$s4, $sp, 48(0x30)
    38fc:	29c0a07a 	st.d        	$s3, $sp, 40(0x28)
    3900:	29c08079 	st.d        	$s2, $sp, 32(0x20)
    3904:	29c06078 	st.d        	$s1, $sp, 24(0x18)
    3908:	29c04077 	st.d        	$s0, $sp, 16(0x10)
    390c:	00150097 	move        	$s0, $a0
    3910:	400074c0 	beqz        	$a2, 116(0x74)	# 3984 <_ZN4core7unicode9printable5check17h6520e0094313856bE+0x94>
    3914:	140001e4 	lu12i.w     	$a0, 15(0xf)
    3918:	002c14c6 	alsl.d      	$a2, $a2, $a1, 0x1
    391c:	0343feea 	andi        	$a6, $s0, 0xff
    3920:	03800019 	ori         	$s2, $zero, 0x0
    3924:	03bc0084 	ori         	$a0, $a0, 0xf00
    3928:	001492e4 	and         	$a0, $s0, $a0
    392c:	0044a089 	srli.w      	$a5, $a0, 0x8
    3930:	03800004 	ori         	$a0, $zero, 0x0
    3934:	2a0004ab 	ld.bu       	$a7, $a1, 1(0x1)
    3938:	2a0000af 	ld.bu       	$t3, $a1, 0
    393c:	02c008a5 	addi.d      	$a1, $a1, 2(0x2)
    3940:	0010ac88 	add.d       	$a4, $a0, $a7
    3944:	5c0031e9 	bne         	$t3, $a5, 48(0x30)	# 3974 <_ZN4core7unicode9printable5check17h6520e0094313856bE+0x84>
    3948:	6800f504 	bltu        	$a4, $a0, 244(0xf4)	# 3a3c <_ZN4core7unicode9printable5check17h6520e0094313856bE+0x14c>
    394c:	0012a18f 	sltu        	$t3, $t0, $a4
    3950:	5c0101e0 	bne         	$t3, $zero, 256(0x100)	# 3a50 <_ZN4core7unicode9printable5check17h6520e0094313856bE+0x160>
    3954:	001090e4 	add.d       	$a0, $a3, $a0
    3958:	40002560 	beqz        	$a7, 36(0x24)	# 397c <_ZN4core7unicode9printable5check17h6520e0094313856bE+0x8c>
    395c:	2a000090 	ld.bu       	$t4, $a0, 0
    3960:	02c0048f 	addi.d      	$t3, $a0, 1(0x1)
    3964:	02fffd6b 	addi.d      	$a7, $a7, -1(0xfff)
    3968:	001501e4 	move        	$a0, $t3
    396c:	5fffee0a 	bne         	$t4, $a6, -20(0x3ffec)	# 3958 <_ZN4core7unicode9printable5check17h6520e0094313856bE+0x68>
    3970:	5000a800 	b           	168(0xa8)	# 3a18 <_ZN4core7unicode9printable5check17h6520e0094313856bE+0x128>
    3974:	0012bd24 	sltu        	$a0, $a5, $t3
    3978:	5c000c80 	bne         	$a0, $zero, 12(0xc)	# 3984 <_ZN4core7unicode9printable5check17h6520e0094313856bE+0x94>
    397c:	00150104 	move        	$a0, $a4
    3980:	5fffb4a6 	bne         	$a1, $a2, -76(0x3ffb4)	# 3934 <_ZN4core7unicode9printable5check17h6520e0094313856bE+0x44>
    3984:	0010b9a4 	add.d       	$a0, $t1, $t2
    3988:	29c0006d 	st.d        	$t1, $sp, 0
    398c:	29c02064 	st.d        	$a0, $sp, 8(0x8)
    3990:	02c00064 	addi.d      	$a0, $sp, 0
    3994:	5405e400 	bl          	1508(0x5e4)	# 3f78 <_ZN104_$LT$core..iter..adapters..cloned..Cloned$LT$I$GT$$u20$as$u20$core..iter..traits..iterator..Iterator$GT$4next17hdaa30ab90a2092f4E>
    3998:	03400484 	andi        	$a0, $a0, 0x1
    399c:	44000c80 	bnez        	$a0, 12(0xc)	# 39a8 <_ZN4core7unicode9printable5check17h6520e0094313856bE+0xb8>
    39a0:	03800419 	ori         	$s2, $zero, 0x1
    39a4:	50007400 	b           	116(0x74)	# 3a18 <_ZN4core7unicode9printable5check17h6520e0094313856bE+0x128>
    39a8:	006f82fa 	bstrpick.w  	$s3, $s0, 0xf, 0x0
    39ac:	001500b8 	move        	$s1, $a1
    39b0:	03800419 	ori         	$s2, $zero, 0x1
    39b4:	0380001b 	ori         	$s4, $zero, 0x0
    39b8:	02c00077 	addi.d      	$s0, $sp, 0
    39bc:	00005f04 	ext.w.b     	$a0, $s1
    39c0:	02000084 	slti        	$a0, $a0, 0
    39c4:	5c001480 	bne         	$a0, $zero, 20(0x14)	# 39d8 <_ZN4core7unicode9printable5check17h6520e0094313856bE+0xe8>
    39c8:	0343ff04 	andi        	$a0, $s1, 0xff
    39cc:	0011135a 	sub.w       	$s3, $s3, $a0
    39d0:	6400335b 	bge         	$s3, $s4, 48(0x30)	# 3a00 <_ZN4core7unicode9printable5check17h6520e0094313856bE+0x110>
    39d4:	50004400 	b           	68(0x44)	# 3a18 <_ZN4core7unicode9printable5check17h6520e0094313856bE+0x128>
    39d8:	001502e4 	move        	$a0, $s0
    39dc:	54059c00 	bl          	1436(0x59c)	# 3f78 <_ZN104_$LT$core..iter..adapters..cloned..Cloned$LT$I$GT$$u20$as$u20$core..iter..traits..iterator..Iterator$GT$4next17hdaa30ab90a2092f4E>
    39e0:	03400484 	andi        	$a0, $a0, 0x1
    39e4:	58008480 	beq         	$a0, $zero, 132(0x84)	# 3a68 <_ZN4core7unicode9printable5check17h6520e0094313856bE+0x178>
    39e8:	0343fca4 	andi        	$a0, $a1, 0xff
    39ec:	0341ff05 	andi        	$a1, $s1, 0x7f
    39f0:	0040a0a5 	slli.w      	$a1, $a1, 0x8
    39f4:	001510a4 	or          	$a0, $a1, $a0
    39f8:	0011135a 	sub.w       	$s3, $s3, $a0
    39fc:	60001f5b 	blt         	$s3, $s4, 28(0x1c)	# 3a18 <_ZN4core7unicode9printable5check17h6520e0094313856bE+0x128>
    3a00:	001502e4 	move        	$a0, $s0
    3a04:	03c00739 	xori        	$s2, $s2, 0x1
    3a08:	54057000 	bl          	1392(0x570)	# 3f78 <_ZN104_$LT$core..iter..adapters..cloned..Cloned$LT$I$GT$$u20$as$u20$core..iter..traits..iterator..Iterator$GT$4next17hdaa30ab90a2092f4E>
    3a0c:	001500b8 	move        	$s1, $a1
    3a10:	03400484 	andi        	$a0, $a0, 0x1
    3a14:	47ffa89f 	bnez        	$a0, -88(0x7fffa8)	# 39bc <_ZN4core7unicode9printable5check17h6520e0094313856bE+0xcc>
    3a18:	03400724 	andi        	$a0, $s2, 0x1
    3a1c:	28c04077 	ld.d        	$s0, $sp, 16(0x10)
    3a20:	28c06078 	ld.d        	$s1, $sp, 24(0x18)
    3a24:	28c08079 	ld.d        	$s2, $sp, 32(0x20)
    3a28:	28c0a07a 	ld.d        	$s3, $sp, 40(0x28)
    3a2c:	28c0c07b 	ld.d        	$s4, $sp, 48(0x30)
    3a30:	28c0e061 	ld.d        	$ra, $sp, 56(0x38)
    3a34:	02c10063 	addi.d      	$sp, $sp, 64(0x40)
    3a38:	4c000020 	jirl        	$zero, $ra, 0
    3a3c:	1c0000a6 	pcaddu12i   	$a2, 5(0x5)
    3a40:	02e630c6 	addi.d      	$a2, $a2, -1652(0x98c)
    3a44:	00150105 	move        	$a1, $a4
    3a48:	57f263ff 	bl          	-3488(0xffff260)	# 2ca8 <_ZN4core5slice5index22slice_index_order_fail17h95c3f5fe615ff62dE>
    3a4c:	002a0000 	break       	0x0
    3a50:	1c0000a6 	pcaddu12i   	$a2, 5(0x5)
    3a54:	02e5e0c6 	addi.d      	$a2, $a2, -1672(0x978)
    3a58:	00150104 	move        	$a0, $a4
    3a5c:	00150185 	move        	$a1, $t0
    3a60:	57f1e3ff 	bl          	-3616(0xffff1e0)	# 2c40 <_ZN4core5slice5index24slice_end_index_len_fail17h8c4cac97e399ce69E>
    3a64:	002a0000 	break       	0x0
    3a68:	1c000064 	pcaddu12i   	$a0, 3(0x3)
    3a6c:	02e81084 	addi.d      	$a0, $a0, -1532(0xa04)
    3a70:	0380ac05 	ori         	$a1, $zero, 0x2b
    3a74:	1c0000a6 	pcaddu12i   	$a2, 5(0x5)
    3a78:	02e5b0c6 	addi.d      	$a2, $a2, -1684(0x96c)
    3a7c:	57e367ff 	bl          	-7324(0xfffe364)	# 1de0 <_ZN4core9panicking5panic17h2978341b5c47dc6dE>
    3a80:	002a0000 	break       	0x0
    3a84:	00000000 	0x00000000

0000000000003a88 <_ZN4core7unicode9printable12is_printable17hbea83c9195fbb9e8E>:
    3a88:	02ffc063 	addi.d      	$sp, $sp, -16(0xff0)
    3a8c:	29c02061 	st.d        	$ra, $sp, 8(0x8)
    3a90:	00408084 	slli.w      	$a0, $a0, 0x0
    3a94:	14000205 	lu12i.w     	$a1, 16(0x10)
    3a98:	6c002c85 	bgeu        	$a0, $a1, 44(0x2c)	# 3ac4 <_ZN4core7unicode9printable12is_printable17hbea83c9195fbb9e8E+0x3c>
    3a9c:	1c000065 	pcaddu12i   	$a1, 3(0x3)
    3aa0:	02e880a5 	addi.d      	$a1, $a1, -1504(0xa20)
    3aa4:	1c000067 	pcaddu12i   	$a3, 3(0x3)
    3aa8:	02e9a0e7 	addi.d      	$a3, $a3, -1432(0xa68)
    3aac:	0380a006 	ori         	$a2, $zero, 0x28
    3ab0:	0384800c 	ori         	$t0, $zero, 0x120
    3ab4:	1c00006d 	pcaddu12i   	$t1, 3(0x3)
    3ab8:	02ede1ad 	addi.d      	$t1, $t1, -1160(0xb78)
    3abc:	0384bc0e 	ori         	$t2, $zero, 0x12f
    3ac0:	50003000 	b           	48(0x30)	# 3af0 <_ZN4core7unicode9printable12is_printable17hbea83c9195fbb9e8E+0x68>
    3ac4:	14000405 	lu12i.w     	$a1, 32(0x20)
    3ac8:	6c004085 	bgeu        	$a0, $a1, 64(0x40)	# 3b08 <_ZN4core7unicode9printable12is_printable17hbea83c9195fbb9e8E+0x80>
    3acc:	1c000065 	pcaddu12i   	$a1, 3(0x3)
    3ad0:	02f23ca5 	addi.d      	$a1, $a1, -881(0xc8f)
    3ad4:	1c000067 	pcaddu12i   	$a3, 3(0x3)
    3ad8:	02f36ce7 	addi.d      	$a3, $a3, -805(0xcdb)
    3adc:	0380a806 	ori         	$a2, $zero, 0x2a
    3ae0:	0383000c 	ori         	$t0, $zero, 0xc0
    3ae4:	1c00006d 	pcaddu12i   	$t1, 3(0x3)
    3ae8:	02f62dad 	addi.d      	$t1, $t1, -629(0xd8b)
    3aec:	0386d80e 	ori         	$t2, $zero, 0x1b6
    3af0:	57fe03ff 	bl          	-512(0xffffe00)	# 38f0 <_ZN4core7unicode9printable5check17h6520e0094313856bE>
    3af4:	00150085 	move        	$a1, $a0
    3af8:	001500a4 	move        	$a0, $a1
    3afc:	28c02061 	ld.d        	$ra, $sp, 8(0x8)
    3b00:	02c04063 	addi.d      	$sp, $sp, 16(0x10)
    3b04:	4c000020 	jirl        	$zero, $ra, 0
    3b08:	15fff9c5 	lu12i.w     	$a1, -50(0xfffce)
    3b0c:	140015c7 	lu12i.w     	$a3, 174(0xae)
    3b10:	03b2d4a6 	ori         	$a2, $a1, 0xcb5
    3b14:	03800005 	ori         	$a1, $zero, 0x0
    3b18:	03b6d4e7 	ori         	$a3, $a3, 0xdb5
    3b1c:	00101886 	add.w       	$a2, $a0, $a2
    3b20:	6bffd8c7 	bltu        	$a2, $a3, -40(0x3ffd8)	# 3af8 <_ZN4core7unicode9printable12is_printable17hbea83c9195fbb9e8E+0x70>
    3b24:	15fffa06 	lu12i.w     	$a2, -48(0xfffd0)
    3b28:	03978807 	ori         	$a3, $zero, 0x5e2
    3b2c:	039788c6 	ori         	$a2, $a2, 0x5e2
    3b30:	00101886 	add.w       	$a2, $a0, $a2
    3b34:	6bffc4c7 	bltu        	$a2, $a3, -60(0x3ffc4)	# 3af8 <_ZN4core7unicode9printable12is_printable17hbea83c9195fbb9e8E+0x70>
    3b38:	15fffa26 	lu12i.w     	$a2, -47(0xfffd1)
    3b3c:	03b07c07 	ori         	$a3, $zero, 0xc1f
    3b40:	03907cc6 	ori         	$a2, $a2, 0x41f
    3b44:	00101886 	add.w       	$a2, $a0, $a2
    3b48:	6bffb0c7 	bltu        	$a2, $a3, -80(0x3ffb0)	# 3af8 <_ZN4core7unicode9printable12is_printable17hbea83c9195fbb9e8E+0x70>
    3b4c:	15fffa66 	lu12i.w     	$a2, -45(0xfffd3)
    3b50:	03803807 	ori         	$a3, $zero, 0xe
    3b54:	038578c6 	ori         	$a2, $a2, 0x15e
    3b58:	00101886 	add.w       	$a2, $a0, $a2
    3b5c:	6bff9cc7 	bltu        	$a2, $a3, -100(0x3ff9c)	# 3af8 <_ZN4core7unicode9printable12is_printable17hbea83c9195fbb9e8E+0x70>
    3b60:	14003fe6 	lu12i.w     	$a2, 511(0x1ff)
    3b64:	14000568 	lu12i.w     	$a4, 43(0x2b)
    3b68:	03bff8c7 	ori         	$a3, $a2, 0xffe
    3b6c:	03a07908 	ori         	$a4, $a4, 0x81e
    3b70:	00149c87 	and         	$a3, $a0, $a3
    3b74:	5bff84e8 	beq         	$a3, $a4, -124(0x3ff84)	# 3af8 <_ZN4core7unicode9printable12is_printable17hbea83c9195fbb9e8E+0x70>
    3b78:	03bf80c6 	ori         	$a2, $a2, 0xfe0
    3b7c:	14000547 	lu12i.w     	$a3, 42(0x2a)
    3b80:	00149886 	and         	$a2, $a0, $a2
    3b84:	039b80e7 	ori         	$a3, $a3, 0x6e0
    3b88:	5bff70c7 	beq         	$a2, $a3, -144(0x3ff70)	# 3af8 <_ZN4core7unicode9printable12is_printable17hbea83c9195fbb9e8E+0x70>
    3b8c:	15fffa86 	lu12i.w     	$a2, -44(0xfffd4)
    3b90:	03801c07 	ori         	$a3, $zero, 0x7
    3b94:	03a31cc6 	ori         	$a2, $a2, 0x8c7
    3b98:	00101886 	add.w       	$a2, $a0, $a2
    3b9c:	6bff5cc7 	bltu        	$a2, $a3, -164(0x3ff5c)	# 3af8 <_ZN4core7unicode9printable12is_printable17hbea83c9195fbb9e8E+0x70>
    3ba0:	14001c05 	lu12i.w     	$a1, 224(0xe0)
    3ba4:	0387c0a5 	ori         	$a1, $a1, 0x1f0
    3ba8:	00129484 	sltu        	$a0, $a0, $a1
    3bac:	28c02061 	ld.d        	$ra, $sp, 8(0x8)
    3bb0:	02c04063 	addi.d      	$sp, $sp, 16(0x10)
    3bb4:	4c000020 	jirl        	$zero, $ra, 0

0000000000003bb8 <_ZN4core3fmt3num3imp7fmt_u6417h1e59b8223145771dE.llvm.4803403633740665608>:
    3bb8:	02ff0063 	addi.d      	$sp, $sp, -64(0xfc0)
    3bbc:	29c0e061 	st.d        	$ra, $sp, 56(0x38)
    3bc0:	29c0c078 	st.d        	$s1, $sp, 48(0x30)
    3bc4:	29c0a077 	st.d        	$s0, $sp, 40(0x28)
    3bc8:	001500ca 	move        	$a6, $a2
    3bcc:	14000046 	lu12i.w     	$a2, 2(0x2)
    3bd0:	140001e7 	lu12i.w     	$a3, 15(0xf)
    3bd4:	14a3d708 	lu12i.w     	$a4, 335544(0x51eb8)
    3bd8:	039c40c9 	ori         	$a5, $a2, 0x710
    3bdc:	02c00066 	addi.d      	$a2, $sp, 0
    3be0:	6800dc89 	bltu        	$a0, $a5, 220(0xdc)	# 3cbc <_ZN4core3fmt3num3imp7fmt_u6417h1e59b8223145771dE.llvm.4803403633740665608+0x104>
    3be4:	14710ca9 	lu12i.w     	$a5, 231525(0x38865)
    3be8:	140bebcb 	lu12i.w     	$a7, 24414(0x5f5e)
    3bec:	03800010 	ori         	$t4, $zero, 0x0
    3bf0:	03947d0c 	ori         	$t0, $a4, 0x51f
    3bf4:	03bff8ed 	ori         	$t1, $a3, 0xffe
    3bf8:	03a52d29 	ori         	$a5, $a5, 0x94b
    3bfc:	0383fd6b 	ori         	$a7, $a7, 0xff
    3c00:	0015012e 	move        	$t2, $a5
    3c04:	00129178 	sltu        	$s1, $a7, $a0
    3c08:	02fff20f 	addi.d      	$t3, $t4, -4(0xffc)
    3c0c:	0010c0d0 	add.d       	$t4, $a2, $t4
    3c10:	17b8bace 	lu32i.d     	$t2, -145962(0xdc5d6)
    3c14:	030d19ce 	lu52i.d     	$t2, $t2, 838(0x346)
    3c18:	1c000077 	pcaddu12i   	$s0, 3(0x3)
    3c1c:	02f83ef7 	addi.d      	$s0, $s0, -497(0xe0f)
    3c20:	001eb88e 	mulh.du     	$t2, $a0, $t2
    3c24:	00452dce 	srli.d      	$t2, $t2, 0xb
    3c28:	004121d3 	slli.d      	$t7, $t2, 0x8
    3c2c:	004111d4 	slli.d      	$t8, $t2, 0x4
    3c30:	00412dd2 	slli.d      	$t6, $t2, 0xb
    3c34:	004135d1 	slli.d      	$t5, $t2, 0xd
    3c38:	0011ce93 	sub.d       	$t7, $t8, $t7
    3c3c:	0010ce52 	add.d       	$t6, $t6, $t7
    3c40:	0010ca31 	add.d       	$t5, $t5, $t6
    3c44:	0011c484 	sub.d       	$a0, $a0, $t5
    3c48:	00408084 	slli.w      	$a0, $a0, 0x0
    3c4c:	006f8091 	bstrpick.w  	$t5, $a0, 0xf, 0x0
    3c50:	00df0231 	bstrpick.d  	$t5, $t5, 0x1f, 0x0
    3c54:	001db231 	mul.d       	$t5, $t5, $t0
    3c58:	00459631 	srli.d      	$t5, $t5, 0x25
    3c5c:	00408231 	slli.w      	$t5, $t5, 0x0
    3c60:	00408a32 	slli.w      	$t6, $t5, 0x2
    3c64:	00409633 	slli.w      	$t7, $t5, 0x5
    3c68:	00114a72 	sub.w       	$t6, $t7, $t6
    3c6c:	00409e33 	slli.w      	$t7, $t5, 0x7
    3c70:	00408631 	slli.w      	$t5, $t5, 0x1
    3c74:	00df0231 	bstrpick.d  	$t5, $t5, 0x1f, 0x0
    3c78:	382446f1 	ldx.hu      	$t5, $s0, $t5
    3c7c:	29408e11 	st.h        	$t5, $t4, 35(0x23)
    3c80:	00114e51 	sub.w       	$t5, $t6, $t7
    3c84:	00104484 	add.w       	$a0, $a0, $t5
    3c88:	00408484 	slli.w      	$a0, $a0, 0x1
    3c8c:	0014b484 	and         	$a0, $a0, $t1
    3c90:	382412e4 	ldx.hu      	$a0, $s0, $a0
    3c94:	29409604 	st.h        	$a0, $t4, 37(0x25)
    3c98:	001501f0 	move        	$t4, $t3
    3c9c:	001501c4 	move        	$a0, $t2
    3ca0:	5fff6300 	bne         	$s1, $zero, -160(0x3ff60)	# 3c00 <_ZN4core3fmt3num3imp7fmt_u6417h1e59b8223145771dE.llvm.4803403633740665608+0x48>
    3ca4:	02c09de9 	addi.d      	$a5, $t3, 39(0x27)
    3ca8:	001501c4 	move        	$a0, $t2
    3cac:	03818c0b 	ori         	$a7, $zero, 0x63
    3cb0:	0012116b 	slt         	$a7, $a7, $a0
    3cb4:	5c001960 	bne         	$a7, $zero, 24(0x18)	# 3ccc <_ZN4core3fmt3num3imp7fmt_u6417h1e59b8223145771dE.llvm.4803403633740665608+0x114>
    3cb8:	50006800 	b           	104(0x68)	# 3d20 <_ZN4core3fmt3num3imp7fmt_u6417h1e59b8223145771dE.llvm.4803403633740665608+0x168>
    3cbc:	03809c09 	ori         	$a5, $zero, 0x27
    3cc0:	03818c0b 	ori         	$a7, $zero, 0x63
    3cc4:	0012116b 	slt         	$a7, $a7, $a0
    3cc8:	58005960 	beq         	$a7, $zero, 88(0x58)	# 3d20 <_ZN4core3fmt3num3imp7fmt_u6417h1e59b8223145771dE.llvm.4803403633740665608+0x168>
    3ccc:	0040808b 	slli.w      	$a7, $a0, 0x0
    3cd0:	03947d08 	ori         	$a4, $a4, 0x51f
    3cd4:	03bff8e7 	ori         	$a3, $a3, 0xffe
    3cd8:	02fff929 	addi.d      	$a5, $a5, -2(0xffe)
    3cdc:	006f8164 	bstrpick.w  	$a0, $a7, 0xf, 0x0
    3ce0:	00df0084 	bstrpick.d  	$a0, $a0, 0x1f, 0x0
    3ce4:	001da084 	mul.d       	$a0, $a0, $a4
    3ce8:	1c000068 	pcaddu12i   	$a4, 3(0x3)
    3cec:	02f4fd08 	addi.d      	$a4, $a4, -705(0xd3f)
    3cf0:	00459484 	srli.d      	$a0, $a0, 0x25
    3cf4:	0040808c 	slli.w      	$t0, $a0, 0x0
    3cf8:	0040898d 	slli.w      	$t1, $t0, 0x2
    3cfc:	0040958e 	slli.w      	$t2, $t0, 0x5
    3d00:	00409d8c 	slli.w      	$t0, $t0, 0x7
    3d04:	001135cd 	sub.w       	$t1, $t2, $t1
    3d08:	001131ac 	sub.w       	$t0, $t1, $t0
    3d0c:	0010316b 	add.w       	$a7, $a7, $t0
    3d10:	0040856b 	slli.w      	$a7, $a7, 0x1
    3d14:	00149d67 	and         	$a3, $a7, $a3
    3d18:	38241d07 	ldx.hu      	$a3, $a4, $a3
    3d1c:	381424c7 	stx.h       	$a3, $a2, $a5
    3d20:	03802807 	ori         	$a3, $zero, 0xa
    3d24:	64001887 	bge         	$a0, $a3, 24(0x18)	# 3d3c <_ZN4core3fmt3num3imp7fmt_u6417h1e59b8223145771dE.llvm.4803403633740665608+0x184>
    3d28:	00408084 	slli.w      	$a0, $a0, 0x0
    3d2c:	02fffd27 	addi.d      	$a3, $a5, -1(0xfff)
    3d30:	0280c084 	addi.w      	$a0, $a0, 48(0x30)
    3d34:	38101cc4 	stx.b       	$a0, $a2, $a3
    3d38:	50001c00 	b           	28(0x1c)	# 3d54 <_ZN4core3fmt3num3imp7fmt_u6417h1e59b8223145771dE.llvm.4803403633740665608+0x19c>
    3d3c:	00410484 	slli.d      	$a0, $a0, 0x1
    3d40:	1c000067 	pcaddu12i   	$a3, 3(0x3)
    3d44:	02f39ce7 	addi.d      	$a3, $a3, -793(0xce7)
    3d48:	382410e4 	ldx.hu      	$a0, $a3, $a0
    3d4c:	02fff927 	addi.d      	$a3, $a5, -2(0xffe)
    3d50:	38141cc4 	stx.h       	$a0, $a2, $a3
    3d54:	03809c04 	ori         	$a0, $zero, 0x27
    3d58:	00109cc8 	add.d       	$a4, $a2, $a3
    3d5c:	00df00a5 	bstrpick.d  	$a1, $a1, 0x1f, 0x0
    3d60:	1c000066 	pcaddu12i   	$a2, 3(0x3)
    3d64:	02f314c6 	addi.d      	$a2, $a2, -827(0xcc5)
    3d68:	00119c89 	sub.d       	$a5, $a0, $a3
    3d6c:	03800007 	ori         	$a3, $zero, 0x0
    3d70:	00150144 	move        	$a0, $a6
    3d74:	57e437ff 	bl          	-7116(0xfffe434)	# 21a8 <_ZN4core3fmt9Formatter12pad_integral17habf59e458b07c8f4E>
    3d78:	28c0a077 	ld.d        	$s0, $sp, 40(0x28)
    3d7c:	28c0c078 	ld.d        	$s1, $sp, 48(0x30)
    3d80:	28c0e061 	ld.d        	$ra, $sp, 56(0x38)
    3d84:	02c10063 	addi.d      	$sp, $sp, 64(0x40)
    3d88:	4c000020 	jirl        	$zero, $ra, 0
    3d8c:	00000000 	0x00000000

0000000000003d90 <_ZN4core3fmt3num3imp51_$LT$impl$u20$core..fmt..Display$u20$for$u20$u8$GT$3fmt17h83182ba217bd0a9cE>:
    3d90:	2a000084 	ld.bu       	$a0, $a0, 0
    3d94:	001500a6 	move        	$a2, $a1
    3d98:	03800405 	ori         	$a1, $zero, 0x1
    3d9c:	53fe1fff 	b           	-484(0xffffe1c)	# 3bb8 <_ZN4core3fmt3num3imp7fmt_u6417h1e59b8223145771dE.llvm.4803403633740665608>

0000000000003da0 <_ZN4core3fmt3num3imp52_$LT$impl$u20$core..fmt..Display$u20$for$u20$u32$GT$3fmt17h9cef8b38c599b6ddE>:
    3da0:	2a800084 	ld.wu       	$a0, $a0, 0
    3da4:	001500a6 	move        	$a2, $a1
    3da8:	03800405 	ori         	$a1, $zero, 0x1
    3dac:	53fe0fff 	b           	-500(0xffffe0c)	# 3bb8 <_ZN4core3fmt3num3imp7fmt_u6417h1e59b8223145771dE.llvm.4803403633740665608>

0000000000003db0 <_ZN4core3fmt3num3imp52_$LT$impl$u20$core..fmt..Display$u20$for$u20$u64$GT$3fmt17hff14131a0735f195E>:
    3db0:	28c00084 	ld.d        	$a0, $a0, 0
    3db4:	001500a6 	move        	$a2, $a1
    3db8:	03800405 	ori         	$a1, $zero, 0x1
    3dbc:	53fdffff 	b           	-516(0xffffdfc)	# 3bb8 <_ZN4core3fmt3num3imp7fmt_u6417h1e59b8223145771dE.llvm.4803403633740665608>

0000000000003dc0 <_ZN4core6result13unwrap_failed17hc9198e820c2af379E>:
    3dc0:	02fe0063 	addi.d      	$sp, $sp, -128(0xf80)
    3dc4:	29c1e061 	st.d        	$ra, $sp, 120(0x78)
    3dc8:	29c08067 	st.d        	$a3, $sp, 32(0x20)
    3dcc:	29c04065 	st.d        	$a1, $sp, 16(0x10)
    3dd0:	29c06066 	st.d        	$a2, $sp, 24(0x18)
    3dd4:	29c02064 	st.d        	$a0, $sp, 8(0x8)
    3dd8:	1c000004 	pcaddu12i   	$a0, 0
    3ddc:	02caa084 	addi.d      	$a0, $a0, 680(0x2a8)
    3de0:	1c000085 	pcaddu12i   	$a1, 4(0x4)
    3de4:	02d860a5 	addi.d      	$a1, $a1, 1560(0x618)
    3de8:	03800809 	ori         	$a5, $zero, 0x2
    3dec:	03800006 	ori         	$a2, $zero, 0x0
    3df0:	02c16067 	addi.d      	$a3, $sp, 88(0x58)
    3df4:	29c1c064 	st.d        	$a0, $sp, 112(0x70)
    3df8:	02c06064 	addi.d      	$a0, $sp, 24(0x18)
    3dfc:	29c14069 	st.d        	$a5, $sp, 80(0x50)
    3e00:	29c12067 	st.d        	$a3, $sp, 72(0x48)
    3e04:	29c0e066 	st.d        	$a2, $sp, 56(0x38)
    3e08:	29c0c069 	st.d        	$a5, $sp, 48(0x30)
    3e0c:	29c0a065 	st.d        	$a1, $sp, 40(0x28)
    3e10:	00150105 	move        	$a1, $a4
    3e14:	29c1a064 	st.d        	$a0, $sp, 104(0x68)
    3e18:	1c000004 	pcaddu12i   	$a0, 0
    3e1c:	02cbe084 	addi.d      	$a0, $a0, 760(0x2f8)
    3e20:	29c18064 	st.d        	$a0, $sp, 96(0x60)
    3e24:	02c02064 	addi.d      	$a0, $sp, 8(0x8)
    3e28:	29c16064 	st.d        	$a0, $sp, 88(0x58)
    3e2c:	02c0a064 	addi.d      	$a0, $sp, 40(0x28)
    3e30:	57e063ff 	bl          	-8096(0xfffe060)	# 1e90 <_ZN4core9panicking9panic_fmt17h7deed37ee899fd65E>
    3e34:	002a0000 	break       	0x0

0000000000003e38 <_ZN73_$LT$core..fmt..num..LowerHex$u20$as$u20$core..fmt..num..GenericRadix$GT$5digit17h82926a1bf5a1cfa4E>:
    3e38:	00408084 	slli.w      	$a0, $a0, 0x0
    3e3c:	03802806 	ori         	$a2, $zero, 0xa
    3e40:	0343fc85 	andi        	$a1, $a0, 0xff
    3e44:	6c0010a6 	bgeu        	$a1, $a2, 16(0x10)	# 3e54 <_ZN73_$LT$core..fmt..num..LowerHex$u20$as$u20$core..fmt..num..GenericRadix$GT$5digit17h82926a1bf5a1cfa4E+0x1c>
    3e48:	0380c005 	ori         	$a1, $zero, 0x30
    3e4c:	001010a4 	add.w       	$a0, $a1, $a0
    3e50:	4c000020 	jirl        	$zero, $ra, 0
    3e54:	024040a5 	sltui       	$a1, $a1, 16(0x10)
    3e58:	580010a0 	beq         	$a1, $zero, 16(0x10)	# 3e68 <_ZN73_$LT$core..fmt..num..LowerHex$u20$as$u20$core..fmt..num..GenericRadix$GT$5digit17h82926a1bf5a1cfa4E+0x30>
    3e5c:	03815c05 	ori         	$a1, $zero, 0x57
    3e60:	001010a4 	add.w       	$a0, $a1, $a0
    3e64:	4c000020 	jirl        	$zero, $ra, 0
    3e68:	02fe8063 	addi.d      	$sp, $sp, -96(0xfa0)
    3e6c:	29c16061 	st.d        	$ra, $sp, 88(0x58)
    3e70:	29001064 	st.b        	$a0, $sp, 4(0x4)
    3e74:	1c000084 	pcaddu12i   	$a0, 4(0x4)
    3e78:	02d69084 	addi.d      	$a0, $a0, 1444(0x5a4)
    3e7c:	03800807 	ori         	$a3, $zero, 0x2
    3e80:	03800005 	ori         	$a1, $zero, 0x0
    3e84:	02c0e066 	addi.d      	$a2, $sp, 56(0x38)
    3e88:	29c0c067 	st.d        	$a3, $sp, 48(0x30)
    3e8c:	29c0a066 	st.d        	$a2, $sp, 40(0x28)
    3e90:	29c06065 	st.d        	$a1, $sp, 24(0x18)
    3e94:	29c04067 	st.d        	$a3, $sp, 16(0x10)
    3e98:	29c02064 	st.d        	$a0, $sp, 8(0x8)
    3e9c:	1c0000a4 	pcaddu12i   	$a0, 5(0x5)
    3ea0:	28e41084 	ld.d        	$a0, $a0, -1788(0x904)
    3ea4:	02c01065 	addi.d      	$a1, $sp, 4(0x4)
    3ea8:	29c14064 	st.d        	$a0, $sp, 80(0x50)
    3eac:	29c12065 	st.d        	$a1, $sp, 72(0x48)
    3eb0:	29c10064 	st.d        	$a0, $sp, 64(0x40)
    3eb4:	1c000064 	pcaddu12i   	$a0, 3(0x3)
    3eb8:	02f1d084 	addi.d      	$a0, $a0, -908(0xc74)
    3ebc:	29c0e064 	st.d        	$a0, $sp, 56(0x38)
    3ec0:	02c02064 	addi.d      	$a0, $sp, 8(0x8)
    3ec4:	1c000085 	pcaddu12i   	$a1, 4(0x4)
    3ec8:	02d5d0a5 	addi.d      	$a1, $a1, 1396(0x574)
    3ecc:	57dfc7ff 	bl          	-8252(0xfffdfc4)	# 1e90 <_ZN4core9panicking9panic_fmt17h7deed37ee899fd65E>
    3ed0:	002a0000 	break       	0x0
    3ed4:	00000000 	0x00000000

0000000000003ed8 <_ZN73_$LT$core..fmt..num..UpperHex$u20$as$u20$core..fmt..num..GenericRadix$GT$5digit17h1113d81d0f4b9112E>:
    3ed8:	00408084 	slli.w      	$a0, $a0, 0x0
    3edc:	03802806 	ori         	$a2, $zero, 0xa
    3ee0:	0343fc85 	andi        	$a1, $a0, 0xff
    3ee4:	6c0010a6 	bgeu        	$a1, $a2, 16(0x10)	# 3ef4 <_ZN73_$LT$core..fmt..num..UpperHex$u20$as$u20$core..fmt..num..GenericRadix$GT$5digit17h1113d81d0f4b9112E+0x1c>
    3ee8:	0380c005 	ori         	$a1, $zero, 0x30
    3eec:	001010a4 	add.w       	$a0, $a1, $a0
    3ef0:	4c000020 	jirl        	$zero, $ra, 0
    3ef4:	024040a5 	sltui       	$a1, $a1, 16(0x10)
    3ef8:	580010a0 	beq         	$a1, $zero, 16(0x10)	# 3f08 <_ZN73_$LT$core..fmt..num..UpperHex$u20$as$u20$core..fmt..num..GenericRadix$GT$5digit17h1113d81d0f4b9112E+0x30>
    3efc:	0380dc05 	ori         	$a1, $zero, 0x37
    3f00:	001010a4 	add.w       	$a0, $a1, $a0
    3f04:	4c000020 	jirl        	$zero, $ra, 0
    3f08:	02fe8063 	addi.d      	$sp, $sp, -96(0xfa0)
    3f0c:	29c16061 	st.d        	$ra, $sp, 88(0x58)
    3f10:	29001064 	st.b        	$a0, $sp, 4(0x4)
    3f14:	1c000084 	pcaddu12i   	$a0, 4(0x4)
    3f18:	02d41084 	addi.d      	$a0, $a0, 1284(0x504)
    3f1c:	03800807 	ori         	$a3, $zero, 0x2
    3f20:	03800005 	ori         	$a1, $zero, 0x0
    3f24:	02c0e066 	addi.d      	$a2, $sp, 56(0x38)
    3f28:	29c0c067 	st.d        	$a3, $sp, 48(0x30)
    3f2c:	29c0a066 	st.d        	$a2, $sp, 40(0x28)
    3f30:	29c06065 	st.d        	$a1, $sp, 24(0x18)
    3f34:	29c04067 	st.d        	$a3, $sp, 16(0x10)
    3f38:	29c02064 	st.d        	$a0, $sp, 8(0x8)
    3f3c:	1c0000a4 	pcaddu12i   	$a0, 5(0x5)
    3f40:	28e19084 	ld.d        	$a0, $a0, -1948(0x864)
    3f44:	02c01065 	addi.d      	$a1, $sp, 4(0x4)
    3f48:	29c14064 	st.d        	$a0, $sp, 80(0x50)
    3f4c:	29c12065 	st.d        	$a1, $sp, 72(0x48)
    3f50:	29c10064 	st.d        	$a0, $sp, 64(0x40)
    3f54:	1c000064 	pcaddu12i   	$a0, 3(0x3)
    3f58:	02ef5084 	addi.d      	$a0, $a0, -1068(0xbd4)
    3f5c:	29c0e064 	st.d        	$a0, $sp, 56(0x38)
    3f60:	02c02064 	addi.d      	$a0, $sp, 8(0x8)
    3f64:	1c000085 	pcaddu12i   	$a1, 4(0x4)
    3f68:	02d3b0a5 	addi.d      	$a1, $a1, 1260(0x4ec)
    3f6c:	57df27ff 	bl          	-8412(0xfffdf24)	# 1e90 <_ZN4core9panicking9panic_fmt17h7deed37ee899fd65E>
    3f70:	002a0000 	break       	0x0
    3f74:	00000000 	0x00000000

0000000000003f78 <_ZN104_$LT$core..iter..adapters..cloned..Cloned$LT$I$GT$$u20$as$u20$core..iter..traits..iterator..Iterator$GT$4next17hdaa30ab90a2092f4E>:
    3f78:	28c00085 	ld.d        	$a1, $a0, 0
    3f7c:	28c02086 	ld.d        	$a2, $a0, 8(0x8)
    3f80:	580018a6 	beq         	$a1, $a2, 24(0x18)	# 3f98 <_ZN104_$LT$core..iter..adapters..cloned..Cloned$LT$I$GT$$u20$as$u20$core..iter..traits..iterator..Iterator$GT$4next17hdaa30ab90a2092f4E+0x20>
    3f84:	02c004a6 	addi.d      	$a2, $a1, 1(0x1)
    3f88:	29c00086 	st.d        	$a2, $a0, 0
    3f8c:	03800404 	ori         	$a0, $zero, 0x1
    3f90:	2a0000a5 	ld.bu       	$a1, $a1, 0
    3f94:	4c000020 	jirl        	$zero, $ra, 0
    3f98:	03800004 	ori         	$a0, $zero, 0x0
    3f9c:	4c000020 	jirl        	$zero, $ra, 0

0000000000003fa0 <_ZN4core3ptr52drop_in_place$LT$core..fmt..builders..PadAdapter$GT$17hf7b01887a315af2cE>:
    3fa0:	4c000020 	jirl        	$zero, $ra, 0
    3fa4:	00000000 	0x00000000

0000000000003fa8 <_ZN4core3fmt9Formatter8wrap_buf17hb1621ce3a8d23ec1E>:
    3fa8:	28c080a8 	ld.d        	$a4, $a1, 32(0x20)
    3fac:	28c0a0a9 	ld.d        	$a5, $a1, 40(0x28)
    3fb0:	29c040c7 	st.d        	$a3, $a2, 16(0x10)
    3fb4:	0380e007 	ori         	$a3, $zero, 0x38
    3fb8:	29c020c9 	st.d        	$a5, $a2, 8(0x8)
    3fbc:	29c000c8 	st.d        	$a4, $a2, 0
    3fc0:	38201ca7 	ldx.bu      	$a3, $a1, $a3
    3fc4:	28c0c0a8 	ld.d        	$a4, $a1, 48(0x30)
    3fc8:	28c000a9 	ld.d        	$a5, $a1, 0
    3fcc:	28c020aa 	ld.d        	$a6, $a1, 8(0x8)
    3fd0:	28c040ab 	ld.d        	$a7, $a1, 16(0x10)
    3fd4:	28c060a5 	ld.d        	$a1, $a1, 24(0x18)
    3fd8:	1c00008c 	pcaddu12i   	$t0, 4(0x4)
    3fdc:	02d2418c 	addi.d      	$t0, $t0, 1168(0x490)
    3fe0:	2900e087 	st.b        	$a3, $a0, 56(0x38)
    3fe4:	29c0a08c 	st.d        	$t0, $a0, 40(0x28)
    3fe8:	29c08086 	st.d        	$a2, $a0, 32(0x20)
    3fec:	29c06085 	st.d        	$a1, $a0, 24(0x18)
    3ff0:	29c0408b 	st.d        	$a7, $a0, 16(0x10)
    3ff4:	29c0208a 	st.d        	$a6, $a0, 8(0x8)
    3ff8:	29c00089 	st.d        	$a5, $a0, 0
    3ffc:	29c0c088 	st.d        	$a4, $a0, 48(0x30)
    4000:	4c000020 	jirl        	$zero, $ra, 0
    4004:	00000000 	0x00000000

0000000000004008 <_ZN42_$LT$$RF$T$u20$as$u20$core..fmt..Debug$GT$3fmt17h52ff99ed247b2a81E>:
    4008:	02ffc063 	addi.d      	$sp, $sp, -16(0xff0)
    400c:	29c02061 	st.d        	$ra, $sp, 8(0x8)
    4010:	2880c0a7 	ld.w        	$a3, $a1, 48(0x30)
    4014:	28c00084 	ld.d        	$a0, $a0, 0
    4018:	001500a6 	move        	$a2, $a1
    401c:	034040e5 	andi        	$a1, $a3, 0x10
    4020:	440028a0 	bnez        	$a1, 40(0x28)	# 4048 <_ZN42_$LT$$RF$T$u20$as$u20$core..fmt..Debug$GT$3fmt17h52ff99ed247b2a81E+0x40>
    4024:	2a000085 	ld.bu       	$a1, $a0, 0
    4028:	034080e4 	andi        	$a0, $a3, 0x20
    402c:	44003880 	bnez        	$a0, 56(0x38)	# 4064 <_ZN42_$LT$$RF$T$u20$as$u20$core..fmt..Debug$GT$3fmt17h52ff99ed247b2a81E+0x5c>
    4030:	0343fca4 	andi        	$a0, $a1, 0xff
    4034:	03800405 	ori         	$a1, $zero, 0x1
    4038:	57fb83ff 	bl          	-1152(0xffffb80)	# 3bb8 <_ZN4core3fmt3num3imp7fmt_u6417h1e59b8223145771dE.llvm.4803403633740665608>
    403c:	28c02061 	ld.d        	$ra, $sp, 8(0x8)
    4040:	02c04063 	addi.d      	$sp, $sp, 16(0x10)
    4044:	4c000020 	jirl        	$zero, $ra, 0
    4048:	28000085 	ld.b        	$a1, $a0, 0
    404c:	1c000064 	pcaddu12i   	$a0, 3(0x3)
    4050:	02ea8c84 	addi.d      	$a0, $a0, -1373(0xaa3)
    4054:	540cc400 	bl          	3268(0xcc4)	# 4d18 <_ZN4core3fmt3num12GenericRadix7fmt_int17hc5fc4935b2b2b156E>
    4058:	28c02061 	ld.d        	$ra, $sp, 8(0x8)
    405c:	02c04063 	addi.d      	$sp, $sp, 16(0x10)
    4060:	4c000020 	jirl        	$zero, $ra, 0
    4064:	1c000064 	pcaddu12i   	$a0, 3(0x3)
    4068:	02ea2c84 	addi.d      	$a0, $a0, -1397(0xa8b)
    406c:	540bfc00 	bl          	3068(0xbfc)	# 4c68 <_ZN4core3fmt3num12GenericRadix7fmt_int17h9cb676349ea54c56E>
    4070:	28c02061 	ld.d        	$ra, $sp, 8(0x8)
    4074:	02c04063 	addi.d      	$sp, $sp, 16(0x10)
    4078:	4c000020 	jirl        	$zero, $ra, 0
    407c:	00000000 	0x00000000

0000000000004080 <_ZN42_$LT$$RF$T$u20$as$u20$core..fmt..Debug$GT$3fmt17h84446656e14eab3bE>:
    4080:	28c00086 	ld.d        	$a2, $a0, 0
    4084:	28c02084 	ld.d        	$a0, $a0, 8(0x8)
    4088:	28c06087 	ld.d        	$a3, $a0, 24(0x18)
    408c:	001500c4 	move        	$a0, $a2
    4090:	4c0000e0 	jirl        	$zero, $a3, 0
    4094:	00000000 	0x00000000

0000000000004098 <_ZN42_$LT$$RF$T$u20$as$u20$core..fmt..Debug$GT$3fmt17h87bceccb59379773E>:
    4098:	02ffc063 	addi.d      	$sp, $sp, -16(0xff0)
    409c:	29c02061 	st.d        	$ra, $sp, 8(0x8)
    40a0:	001500a6 	move        	$a2, $a1
    40a4:	2880c0a5 	ld.w        	$a1, $a1, 48(0x30)
    40a8:	28c00084 	ld.d        	$a0, $a0, 0
    40ac:	034040a7 	andi        	$a3, $a1, 0x10
    40b0:	440028e0 	bnez        	$a3, 40(0x28)	# 40d8 <_ZN42_$LT$$RF$T$u20$as$u20$core..fmt..Debug$GT$3fmt17h87bceccb59379773E+0x40>
    40b4:	28c00087 	ld.d        	$a3, $a0, 0
    40b8:	034080a4 	andi        	$a0, $a1, 0x20
    40bc:	44003880 	bnez        	$a0, 56(0x38)	# 40f4 <_ZN42_$LT$$RF$T$u20$as$u20$core..fmt..Debug$GT$3fmt17h87bceccb59379773E+0x5c>
    40c0:	03800405 	ori         	$a1, $zero, 0x1
    40c4:	001500e4 	move        	$a0, $a3
    40c8:	57faf3ff 	bl          	-1296(0xffffaf0)	# 3bb8 <_ZN4core3fmt3num3imp7fmt_u6417h1e59b8223145771dE.llvm.4803403633740665608>
    40cc:	28c02061 	ld.d        	$ra, $sp, 8(0x8)
    40d0:	02c04063 	addi.d      	$sp, $sp, 16(0x10)
    40d4:	4c000020 	jirl        	$zero, $ra, 0
    40d8:	28c00085 	ld.d        	$a1, $a0, 0
    40dc:	1c000064 	pcaddu12i   	$a0, 3(0x3)
    40e0:	02e84c84 	addi.d      	$a0, $a0, -1517(0xa13)
    40e4:	540a2400 	bl          	2596(0xa24)	# 4b08 <_ZN4core3fmt3num12GenericRadix7fmt_int17hded4f09ad8add160E>
    40e8:	28c02061 	ld.d        	$ra, $sp, 8(0x8)
    40ec:	02c04063 	addi.d      	$sp, $sp, 16(0x10)
    40f0:	4c000020 	jirl        	$zero, $ra, 0
    40f4:	1c000064 	pcaddu12i   	$a0, 3(0x3)
    40f8:	02e7ec84 	addi.d      	$a0, $a0, -1541(0x9fb)
    40fc:	001500e5 	move        	$a1, $a3
    4100:	540ab800 	bl          	2744(0xab8)	# 4bb8 <_ZN4core3fmt3num12GenericRadix7fmt_int17h7023761a67d263f0E>
    4104:	28c02061 	ld.d        	$ra, $sp, 8(0x8)
    4108:	02c04063 	addi.d      	$sp, $sp, 16(0x10)
    410c:	4c000020 	jirl        	$zero, $ra, 0

0000000000004110 <_ZN44_$LT$$RF$T$u20$as$u20$core..fmt..Display$GT$3fmt17h28189a2ee54a57d6E>:
    4110:	001500a7 	move        	$a3, $a1
    4114:	28c02086 	ld.d        	$a2, $a0, 8(0x8)
    4118:	28c00085 	ld.d        	$a1, $a0, 0
    411c:	001500e4 	move        	$a0, $a3
    4120:	53e46bff 	b           	-7064(0xfffe468)	# 2588 <_ZN4core3fmt9Formatter3pad17h0b8cb1dee35d2891E>
    4124:	00000000 	0x00000000

0000000000004128 <_ZN4core3str11validations25truncate_to_char_boundary17he03de00cdc19b12cE>:
    4128:	001298e8 	sltu        	$a4, $a3, $a2
    412c:	03c00508 	xori        	$a4, $a4, 0x1
    4130:	5c005500 	bne         	$a4, $zero, 84(0x54)	# 4184 <_ZN4core3str11validations25truncate_to_char_boundary17he03de00cdc19b12cE+0x5c>
    4134:	03800009 	ori         	$a5, $zero, 0x0
    4138:	03800408 	ori         	$a4, $zero, 0x1
    413c:	440024e0 	bnez        	$a3, 36(0x24)	# 4160 <_ZN4core3str11validations25truncate_to_char_boundary17he03de00cdc19b12cE+0x38>
    4140:	00150126 	move        	$a2, $a5
    4144:	29c04086 	st.d        	$a2, $a0, 16(0x10)
    4148:	29c02085 	st.d        	$a1, $a0, 8(0x8)
    414c:	29000088 	st.b        	$a4, $a0, 0
    4150:	4c000020 	jirl        	$zero, $ra, 0
    4154:	5bfff0c7 	beq         	$a2, $a3, -16(0x3fff0)	# 4144 <_ZN4core3str11validations25truncate_to_char_boundary17he03de00cdc19b12cE+0x1c>
    4158:	02fffce7 	addi.d      	$a3, $a3, -1(0xfff)
    415c:	43ffe4ff 	beqz        	$a3, -28(0x7fffe4)	# 4140 <_ZN4core3str11validations25truncate_to_char_boundary17he03de00cdc19b12cE+0x18>
    4160:	6ffff4e6 	bgeu        	$a3, $a2, -12(0x3fff4)	# 4154 <_ZN4core3str11validations25truncate_to_char_boundary17he03de00cdc19b12cE+0x2c>
    4164:	38001caa 	ldx.b       	$a6, $a1, $a3
    4168:	023f014a 	slti        	$a6, $a6, -64(0xfc0)
    416c:	5fffed40 	bne         	$a6, $zero, -20(0x3ffec)	# 4158 <_ZN4core3str11validations25truncate_to_char_boundary17he03de00cdc19b12cE+0x30>
    4170:	001500e6 	move        	$a2, $a3
    4174:	29c04086 	st.d        	$a2, $a0, 16(0x10)
    4178:	29c02085 	st.d        	$a1, $a0, 8(0x8)
    417c:	29000088 	st.b        	$a4, $a0, 0
    4180:	4c000020 	jirl        	$zero, $ra, 0
    4184:	03800008 	ori         	$a4, $zero, 0x0
    4188:	29c04086 	st.d        	$a2, $a0, 16(0x10)
    418c:	29c02085 	st.d        	$a1, $a0, 8(0x8)
    4190:	29000088 	st.b        	$a4, $a0, 0
    4194:	4c000020 	jirl        	$zero, $ra, 0

0000000000004198 <_ZN4core3str8converts9from_utf817h2c5548cbb26615fbE>:
    4198:	02fe8063 	addi.d      	$sp, $sp, -96(0xfa0)
    419c:	29c16061 	st.d        	$ra, $sp, 88(0x58)
    41a0:	29c14076 	st.d        	$fp, $sp, 80(0x50)
    41a4:	29c1207f 	st.d        	$s8, $sp, 72(0x48)
    41a8:	29c1007e 	st.d        	$s7, $sp, 64(0x40)
    41ac:	29c0e07d 	st.d        	$s6, $sp, 56(0x38)
    41b0:	29c0c07c 	st.d        	$s5, $sp, 48(0x30)
    41b4:	29c0a07b 	st.d        	$s4, $sp, 40(0x28)
    41b8:	29c0807a 	st.d        	$s3, $sp, 32(0x20)
    41bc:	29c06079 	st.d        	$s2, $sp, 24(0x18)
    41c0:	29c04078 	st.d        	$s1, $sp, 16(0x10)
    41c4:	29c02077 	st.d        	$s0, $sp, 8(0x8)
    41c8:	02ffc4c7 	addi.d      	$a3, $a2, -15(0xff1)
    41cc:	00129cc8 	sltu        	$a4, $a2, $a3
    41d0:	00408109 	slli.w      	$a5, $a4, 0x0
    41d4:	03800008 	ori         	$a4, $zero, 0x0
    41d8:	0013a4e7 	masknez     	$a3, $a3, $a5
    41dc:	0013250a 	maskeqz     	$a6, $a4, $a5
    41e0:	02bfe009 	addi.w      	$a5, $zero, -8(0xff8)
    41e4:	400224c0 	beqz        	$a2, 548(0x224)	# 4408 <_ZN4core3str8converts9from_utf817h2c5548cbb26615fbE+0x270>
    41e8:	00151d4c 	or          	$t0, $a6, $a3
    41ec:	02c01ca7 	addi.d      	$a3, $a1, 7(0x7)
    41f0:	1501010a 	lu12i.w     	$a6, -522232(0x80808)
    41f4:	0380000b 	ori         	$a7, $zero, 0x0
    41f8:	0380100e 	ori         	$t2, $zero, 0x4
    41fc:	0383c010 	ori         	$t4, $zero, 0xf0
    4200:	0380c011 	ori         	$t5, $zero, 0x30
    4204:	0380080f 	ori         	$t3, $zero, 0x2
    4208:	03800c12 	ori         	$t6, $zero, 0x3
    420c:	0383d013 	ori         	$t7, $zero, 0xf4
    4210:	03800c14 	ori         	$t8, $zero, 0x3
    4214:	03838017 	ori         	$s0, $zero, 0xe0
    4218:	03828018 	ori         	$s1, $zero, 0xa0
    421c:	0383b419 	ori         	$s2, $zero, 0xed
    4220:	0380301a 	ori         	$s3, $zero, 0xc
    4224:	0383b81b 	ori         	$s4, $zero, 0xee
    4228:	0380081c 	ori         	$s5, $zero, 0x2
    422c:	0014a4e7 	and         	$a3, $a3, $a5
    4230:	0382015d 	ori         	$s6, $a6, 0x80
    4234:	03800409 	ori         	$a5, $zero, 0x1
    4238:	0015010a 	move        	$a6, $a4
    423c:	001194ed 	sub.d       	$t1, $a3, $a1
    4240:	03800407 	ori         	$a3, $zero, 0x1
    4244:	50000c00 	b           	12(0xc)	# 4250 <_ZN4core3str8converts9from_utf817h2c5548cbb26615fbE+0xb8>
    4248:	02c0054a 	addi.d      	$a6, $a6, 1(0x1)
    424c:	6c01bd46 	bgeu        	$a6, $a2, 444(0x1bc)	# 4408 <_ZN4core3str8converts9from_utf817h2c5548cbb26615fbE+0x270>
    4250:	0010a8be 	add.d       	$s7, $a1, $a6
    4254:	2a0003df 	ld.bu       	$s8, $s7, 0
    4258:	00005ffe 	ext.w.b     	$s7, $s8
    425c:	600063cb 	blt         	$s7, $a7, 96(0x60)	# 42bc <_ZN4core3str8converts9from_utf817h2c5548cbb26615fbE+0x124>
    4260:	02bffc1e 	addi.w      	$s7, $zero, -1(0xfff)
    4264:	5bffe5be 	beq         	$t1, $s7, -28(0x3ffe4)	# 4248 <_ZN4core3str8converts9from_utf817h2c5548cbb26615fbE+0xb0>
    4268:	0011a9be 	sub.d       	$s7, $t1, $a6
    426c:	03401fde 	andi        	$s7, $s7, 0x7
    4270:	47ffdbdf 	bnez        	$s7, -40(0x7fffd8)	# 4248 <_ZN4core3str8converts9from_utf817h2c5548cbb26615fbE+0xb0>
    4274:	6c00314c 	bgeu        	$a6, $t0, 48(0x30)	# 42a4 <_ZN4core3str8converts9from_utf817h2c5548cbb26615fbE+0x10c>
    4278:	0010a8bf 	add.d       	$s8, $a1, $a6
    427c:	380c28be 	ldx.d       	$s7, $a1, $a6
    4280:	28c023ff 	ld.d        	$s8, $s8, 8(0x8)
    4284:	00157bfe 	or          	$s7, $s8, $s7
    4288:	001503bf 	move        	$s8, $s6
    428c:	1610101f 	lu32i.d     	$s8, 32896(0x8080)
    4290:	032023ff 	lu52i.d     	$s8, $s8, -2040(0x808)
    4294:	0014ffde 	and         	$s7, $s7, $s8
    4298:	44000fc0 	bnez        	$s7, 12(0xc)	# 42a4 <_ZN4core3str8converts9from_utf817h2c5548cbb26615fbE+0x10c>
    429c:	02c0414a 	addi.d      	$a6, $a6, 16(0x10)
    42a0:	6bffd94c 	bltu        	$a6, $t0, -40(0x3ffd8)	# 4278 <_ZN4core3str8converts9from_utf817h2c5548cbb26615fbE+0xe0>
    42a4:	6c016146 	bgeu        	$a6, $a2, 352(0x160)	# 4404 <_ZN4core3str8converts9from_utf817h2c5548cbb26615fbE+0x26c>
    42a8:	380028be 	ldx.b       	$s7, $a1, $a6
    42ac:	60015bcb 	blt         	$s7, $a7, 344(0x158)	# 4404 <_ZN4core3str8converts9from_utf817h2c5548cbb26615fbE+0x26c>
    42b0:	02c0054a 	addi.d      	$a6, $a6, 1(0x1)
    42b4:	5ffff4ca 	bne         	$a2, $a6, -12(0x3fff4)	# 42a8 <_ZN4core3str8converts9from_utf817h2c5548cbb26615fbE+0x110>
    42b8:	50015000 	b           	336(0x150)	# 4408 <_ZN4core3str8converts9from_utf817h2c5548cbb26615fbE+0x270>
    42bc:	00df03e1 	bstrpick.d  	$ra, $s8, 0x1f, 0x0
    42c0:	1c000096 	pcaddu12i   	$fp, 4(0x4)
    42c4:	28d342d6 	ld.d        	$fp, $fp, 1232(0x4d0)
    42c8:	001086c1 	add.d       	$ra, $fp, $ra
    42cc:	2a000021 	ld.bu       	$ra, $ra, 0
    42d0:	5800242e 	beq         	$ra, $t2, 36(0x24)	# 42f4 <_ZN4core3str8converts9from_utf817h2c5548cbb26615fbE+0x15c>
    42d4:	58005034 	beq         	$ra, $t8, 80(0x50)	# 4324 <_ZN4core3str8converts9from_utf817h2c5548cbb26615fbE+0x18c>
    42d8:	5c01403c 	bne         	$ra, $s5, 320(0x140)	# 4418 <_ZN4core3str8converts9from_utf817h2c5548cbb26615fbE+0x280>
    42dc:	02c0055e 	addi.d      	$s7, $a6, 1(0x1)
    42e0:	6c0143c6 	bgeu        	$s7, $a2, 320(0x140)	# 4420 <_ZN4core3str8converts9from_utf817h2c5548cbb26615fbE+0x288>
    42e4:	380078bf 	ldx.b       	$s8, $a1, $s7
    42e8:	023f03ff 	slti        	$s8, $s8, -64(0xfc0)
    42ec:	5c0117e0 	bne         	$s8, $zero, 276(0x114)	# 4400 <_ZN4core3str8converts9from_utf817h2c5548cbb26615fbE+0x268>
    42f0:	50012800 	b           	296(0x128)	# 4418 <_ZN4core3str8converts9from_utf817h2c5548cbb26615fbE+0x280>
    42f4:	02c00541 	addi.d      	$ra, $a6, 1(0x1)
    42f8:	6c012826 	bgeu        	$ra, $a2, 296(0x128)	# 4420 <_ZN4core3str8converts9from_utf817h2c5548cbb26615fbE+0x288>
    42fc:	382004a1 	ldx.bu      	$ra, $a1, $ra
    4300:	580053f0 	beq         	$s8, $t4, 80(0x50)	# 4350 <_ZN4core3str8converts9from_utf817h2c5548cbb26615fbE+0x1b8>
    4304:	0343fc36 	andi        	$fp, $ra, 0xff
    4308:	5c005bf3 	bne         	$s8, $t7, 88(0x58)	# 4360 <_ZN4core3str8converts9from_utf817h2c5548cbb26615fbE+0x1c8>
    430c:	00005c3e 	ext.w.b     	$s7, $ra
    4310:	020003de 	slti        	$s7, $s7, 0
    4314:	580107c0 	beq         	$s7, $zero, 260(0x104)	# 4418 <_ZN4core3str8converts9from_utf817h2c5548cbb26615fbE+0x280>
    4318:	024242de 	sltui       	$s7, $fp, 144(0x90)
    431c:	5c0067c0 	bne         	$s7, $zero, 100(0x64)	# 4380 <_ZN4core3str8converts9from_utf817h2c5548cbb26615fbE+0x1e8>
    4320:	5000f800 	b           	248(0xf8)	# 4418 <_ZN4core3str8converts9from_utf817h2c5548cbb26615fbE+0x280>
    4324:	02c00541 	addi.d      	$ra, $a6, 1(0x1)
    4328:	6c00f826 	bgeu        	$ra, $a2, 248(0xf8)	# 4420 <_ZN4core3str8converts9from_utf817h2c5548cbb26615fbE+0x288>
    432c:	382004b6 	ldx.bu      	$fp, $a1, $ra
    4330:	58007ff7 	beq         	$s8, $s0, 124(0x7c)	# 43ac <_ZN4core3str8converts9from_utf817h2c5548cbb26615fbE+0x214>
    4334:	00005ec1 	ext.w.b     	$ra, $fp
    4338:	0343fed6 	andi        	$fp, $fp, 0xff
    433c:	5c007ff9 	bne         	$s8, $s2, 124(0x7c)	# 43b8 <_ZN4core3str8converts9from_utf817h2c5548cbb26615fbE+0x220>
    4340:	0200003e 	slti        	$s7, $ra, 0
    4344:	5800d7c0 	beq         	$s7, $zero, 212(0xd4)	# 4418 <_ZN4core3str8converts9from_utf817h2c5548cbb26615fbE+0x280>
    4348:	6800a6d8 	bltu        	$fp, $s1, 164(0xa4)	# 43ec <_ZN4core3str8converts9from_utf817h2c5548cbb26615fbE+0x254>
    434c:	5000cc00 	b           	204(0xcc)	# 4418 <_ZN4core3str8converts9from_utf817h2c5548cbb26615fbE+0x280>
    4350:	0281c03e 	addi.w      	$s7, $ra, 112(0x70)
    4354:	0343ffde 	andi        	$s7, $s7, 0xff
    4358:	68002bd1 	bltu        	$s7, $t5, 40(0x28)	# 4380 <_ZN4core3str8converts9from_utf817h2c5548cbb26615fbE+0x1e8>
    435c:	5000bc00 	b           	188(0xbc)	# 4418 <_ZN4core3str8converts9from_utf817h2c5548cbb26615fbE+0x280>
    4360:	024302df 	sltui       	$s8, $fp, 192(0xc0)
    4364:	5800b7e0 	beq         	$s8, $zero, 180(0xb4)	# 4418 <_ZN4core3str8converts9from_utf817h2c5548cbb26615fbE+0x280>
    4368:	02803fde 	addi.w      	$s7, $s7, 15(0xf)
    436c:	0343ffde 	andi        	$s7, $s7, 0xff
    4370:	02400fde 	sltui       	$s7, $s7, 3(0x3)
    4374:	5800a7c0 	beq         	$s7, $zero, 164(0xa4)	# 4418 <_ZN4core3str8converts9from_utf817h2c5548cbb26615fbE+0x280>
    4378:	00005c3e 	ext.w.b     	$s7, $ra
    437c:	64009fcb 	bge         	$s7, $a7, 156(0x9c)	# 4418 <_ZN4core3str8converts9from_utf817h2c5548cbb26615fbE+0x280>
    4380:	02c0095e 	addi.d      	$s7, $a6, 2(0x2)
    4384:	6c009fc6 	bgeu        	$s7, $a2, 156(0x9c)	# 4420 <_ZN4core3str8converts9from_utf817h2c5548cbb26615fbE+0x288>
    4388:	380078be 	ldx.b       	$s7, $a1, $s7
    438c:	023f03de 	slti        	$s7, $s7, -64(0xfc0)
    4390:	58009bc0 	beq         	$s7, $zero, 152(0x98)	# 4428 <_ZN4core3str8converts9from_utf817h2c5548cbb26615fbE+0x290>
    4394:	02c00d5e 	addi.d      	$s7, $a6, 3(0x3)
    4398:	6c008bc6 	bgeu        	$s7, $a2, 136(0x88)	# 4420 <_ZN4core3str8converts9from_utf817h2c5548cbb26615fbE+0x288>
    439c:	380078bf 	ldx.b       	$s8, $a1, $s7
    43a0:	023f03ff 	slti        	$s8, $s8, -64(0xfc0)
    43a4:	5c005fe0 	bne         	$s8, $zero, 92(0x5c)	# 4400 <_ZN4core3str8converts9from_utf817h2c5548cbb26615fbE+0x268>
    43a8:	50008800 	b           	136(0x88)	# 4430 <_ZN4core3str8converts9from_utf817h2c5548cbb26615fbE+0x298>
    43ac:	034382de 	andi        	$s7, $fp, 0xe0
    43b0:	58003fd8 	beq         	$s7, $s1, 60(0x3c)	# 43ec <_ZN4core3str8converts9from_utf817h2c5548cbb26615fbE+0x254>
    43b4:	50006400 	b           	100(0x64)	# 4418 <_ZN4core3str8converts9from_utf817h2c5548cbb26615fbE+0x280>
    43b8:	02807fdf 	addi.w      	$s8, $s7, 31(0x1f)
    43bc:	0343ffff 	andi        	$s8, $s8, 0xff
    43c0:	6c001bfa 	bgeu        	$s8, $s3, 24(0x18)	# 43d8 <_ZN4core3str8converts9from_utf817h2c5548cbb26615fbE+0x240>
    43c4:	0200003e 	slti        	$s7, $ra, 0
    43c8:	580053c0 	beq         	$s7, $zero, 80(0x50)	# 4418 <_ZN4core3str8converts9from_utf817h2c5548cbb26615fbE+0x280>
    43cc:	024302de 	sltui       	$s7, $fp, 192(0xc0)
    43d0:	5c001fc0 	bne         	$s7, $zero, 28(0x1c)	# 43ec <_ZN4core3str8converts9from_utf817h2c5548cbb26615fbE+0x254>
    43d4:	50004400 	b           	68(0x44)	# 4418 <_ZN4core3str8converts9from_utf817h2c5548cbb26615fbE+0x280>
    43d8:	024302df 	sltui       	$s8, $fp, 192(0xc0)
    43dc:	58003fe0 	beq         	$s8, $zero, 60(0x3c)	# 4418 <_ZN4core3str8converts9from_utf817h2c5548cbb26615fbE+0x280>
    43e0:	0343fbde 	andi        	$s7, $s7, 0xfe
    43e4:	5c0037db 	bne         	$s7, $s4, 52(0x34)	# 4418 <_ZN4core3str8converts9from_utf817h2c5548cbb26615fbE+0x280>
    43e8:	6400302b 	bge         	$ra, $a7, 48(0x30)	# 4418 <_ZN4core3str8converts9from_utf817h2c5548cbb26615fbE+0x280>
    43ec:	02c0095e 	addi.d      	$s7, $a6, 2(0x2)
    43f0:	6c0033c6 	bgeu        	$s7, $a2, 48(0x30)	# 4420 <_ZN4core3str8converts9from_utf817h2c5548cbb26615fbE+0x288>
    43f4:	380078bf 	ldx.b       	$s8, $a1, $s7
    43f8:	023f03ff 	slti        	$s8, $s8, -64(0xfc0)
    43fc:	58002fe0 	beq         	$s8, $zero, 44(0x2c)	# 4428 <_ZN4core3str8converts9from_utf817h2c5548cbb26615fbE+0x290>
    4400:	02c007ca 	addi.d      	$a6, $s7, 1(0x1)
    4404:	6bfe4d46 	bltu        	$a6, $a2, -436(0x3fe4c)	# 4250 <_ZN4core3str8converts9from_utf817h2c5548cbb26615fbE+0xb8>
    4408:	29c04086 	st.d        	$a2, $a0, 16(0x10)
    440c:	29c02085 	st.d        	$a1, $a0, 8(0x8)
    4410:	03800007 	ori         	$a3, $zero, 0x0
    4414:	50003400 	b           	52(0x34)	# 4448 <_ZN4core3str8converts9from_utf817h2c5548cbb26615fbE+0x2b0>
    4418:	001500e8 	move        	$a4, $a3
    441c:	50001800 	b           	24(0x18)	# 4434 <_ZN4core3str8converts9from_utf817h2c5548cbb26615fbE+0x29c>
    4420:	00150169 	move        	$a5, $a7
    4424:	50001000 	b           	16(0x10)	# 4434 <_ZN4core3str8converts9from_utf817h2c5548cbb26615fbE+0x29c>
    4428:	001501e8 	move        	$a4, $t3
    442c:	50000800 	b           	8(0x8)	# 4434 <_ZN4core3str8converts9from_utf817h2c5548cbb26615fbE+0x29c>
    4430:	00150248 	move        	$a4, $t6
    4434:	00df0125 	bstrpick.d  	$a1, $a5, 0x1f, 0x0
    4438:	00412106 	slli.d      	$a2, $a4, 0x8
    443c:	29c0208a 	st.d        	$a6, $a0, 8(0x8)
    4440:	001514c5 	or          	$a1, $a2, $a1
    4444:	29c04085 	st.d        	$a1, $a0, 16(0x10)
    4448:	28c02077 	ld.d        	$s0, $sp, 8(0x8)
    444c:	28c04078 	ld.d        	$s1, $sp, 16(0x10)
    4450:	28c06079 	ld.d        	$s2, $sp, 24(0x18)
    4454:	28c0807a 	ld.d        	$s3, $sp, 32(0x20)
    4458:	28c0a07b 	ld.d        	$s4, $sp, 40(0x28)
    445c:	28c0c07c 	ld.d        	$s5, $sp, 48(0x30)
    4460:	28c0e07d 	ld.d        	$s6, $sp, 56(0x38)
    4464:	28c1007e 	ld.d        	$s7, $sp, 64(0x40)
    4468:	28c1207f 	ld.d        	$s8, $sp, 72(0x48)
    446c:	28c14076 	ld.d        	$fp, $sp, 80(0x50)
    4470:	28c16061 	ld.d        	$ra, $sp, 88(0x58)
    4474:	29c00087 	st.d        	$a3, $a0, 0
    4478:	02c18063 	addi.d      	$sp, $sp, 96(0x60)
    447c:	4c000020 	jirl        	$zero, $ra, 0

0000000000004480 <_ZN4core3ptr30drop_in_place$LT$$RF$usize$GT$17heeea762fc4c16682E>:
    4480:	4c000020 	jirl        	$zero, $ra, 0
    4484:	00000000 	0x00000000

0000000000004488 <_ZN64_$LT$core..alloc..layout..Layout$u20$as$u20$core..fmt..Debug$GT$3fmt17h38366f4a89758a4dE>:
    4488:	02ff0063 	addi.d      	$sp, $sp, -64(0xfc0)
    448c:	29c0e061 	st.d        	$ra, $sp, 56(0x38)
    4490:	29c0c079 	st.d        	$s2, $sp, 48(0x30)
    4494:	29c0a078 	st.d        	$s1, $sp, 40(0x28)
    4498:	29c08077 	st.d        	$s0, $sp, 32(0x20)
    449c:	00150098 	move        	$s1, $a0
    44a0:	001500b7 	move        	$s0, $a1
    44a4:	28c080a4 	ld.d        	$a0, $a1, 32(0x20)
    44a8:	28c0a0a5 	ld.d        	$a1, $a1, 40(0x28)
    44ac:	03801819 	ori         	$s2, $zero, 0x6
    44b0:	00150326 	move        	$a2, $s2
    44b4:	28c060a7 	ld.d        	$a3, $a1, 24(0x18)
    44b8:	1c000045 	pcaddu12i   	$a1, 2(0x2)
    44bc:	02ddc4a5 	addi.d      	$a1, $a1, 1905(0x771)
    44c0:	4c0000e1 	jirl        	$ra, $a3, 0
    44c4:	00408084 	slli.w      	$a0, $a0, 0x0
    44c8:	03800405 	ori         	$a1, $zero, 0x1
    44cc:	03800006 	ori         	$a2, $zero, 0x0
    44d0:	29c02077 	st.d        	$s0, $sp, 8(0x8)
    44d4:	02c02077 	addi.d      	$s0, $sp, 8(0x8)
    44d8:	02c06067 	addi.d      	$a3, $sp, 24(0x18)
    44dc:	001390c9 	masknez     	$a5, $a2, $a0
    44e0:	001310a4 	maskeqz     	$a0, $a1, $a0
    44e4:	1c000045 	pcaddu12i   	$a1, 2(0x2)
    44e8:	02dd2ca5 	addi.d      	$a1, $a1, 1867(0x74b)
    44ec:	1c000088 	pcaddu12i   	$a4, 4(0x4)
    44f0:	02feb108 	addi.d      	$a4, $a4, -84(0xfac)
    44f4:	03801406 	ori         	$a2, $zero, 0x5
    44f8:	29c06078 	st.d        	$s1, $sp, 24(0x18)
    44fc:	00152484 	or          	$a0, $a0, $a5
    4500:	29c04064 	st.d        	$a0, $sp, 16(0x10)
    4504:	001502e4 	move        	$a0, $s0
    4508:	57eb23ff 	bl          	-5344(0xfffeb20)	# 3028 <_ZN4core3fmt8builders11DebugStruct5field17h3a9035d1055c2414E>
    450c:	02c02304 	addi.d      	$a0, $s1, 8(0x8)
    4510:	1c000045 	pcaddu12i   	$a1, 2(0x2)
    4514:	02dc90a5 	addi.d      	$a1, $a1, 1828(0x724)
    4518:	1c000088 	pcaddu12i   	$a4, 4(0x4)
    451c:	02fe8108 	addi.d      	$a4, $a4, -96(0xfa0)
    4520:	02c06067 	addi.d      	$a3, $sp, 24(0x18)
    4524:	00150326 	move        	$a2, $s2
    4528:	29c06064 	st.d        	$a0, $sp, 24(0x18)
    452c:	001502e4 	move        	$a0, $s0
    4530:	57eafbff 	bl          	-5384(0xfffeaf8)	# 3028 <_ZN4core3fmt8builders11DebugStruct5field17h3a9035d1055c2414E>
    4534:	001502e4 	move        	$a0, $s0
    4538:	57ed0bff 	bl          	-4856(0xfffed08)	# 3240 <_ZN4core3fmt8builders11DebugStruct6finish17h7b4a90f5a2e09a1fE>
    453c:	28c08077 	ld.d        	$s0, $sp, 32(0x20)
    4540:	28c0a078 	ld.d        	$s1, $sp, 40(0x28)
    4544:	28c0c079 	ld.d        	$s2, $sp, 48(0x30)
    4548:	28c0e061 	ld.d        	$ra, $sp, 56(0x38)
    454c:	02c10063 	addi.d      	$sp, $sp, 64(0x40)
    4550:	4c000020 	jirl        	$zero, $ra, 0
    4554:	00000000 	0x00000000

0000000000004558 <_ZN36_$LT$T$u20$as$u20$core..any..Any$GT$7type_id17h366022c4f0194876E>:
    4558:	1533eb44 	lu12i.w     	$a0, -417958(0x99f5a)
    455c:	03bcf084 	ori         	$a0, $a0, 0xf3c
    4560:	1694a5c4 	lu32i.d     	$a0, 304430(0x4a52e)
    4564:	03265c84 	lu52i.d     	$a0, $a0, -1641(0x997)
    4568:	4c000020 	jirl        	$zero, $ra, 0
    456c:	00000000 	0x00000000

0000000000004570 <_ZN4core5slice6memchr19memchr_general_case17hd0c4588bd91c18c2E>:
    4570:	02ffc063 	addi.d      	$sp, $sp, -16(0xff0)
    4574:	29c02061 	st.d        	$ra, $sp, 8(0x8)
    4578:	02c01ca7 	addi.d      	$a3, $a1, 7(0x7)
    457c:	02bfe008 	addi.w      	$a4, $zero, -8(0xff8)
    4580:	0014a0e7 	and         	$a3, $a3, $a4
    4584:	00408088 	slli.w      	$a4, $a0, 0x0
    4588:	001194e7 	sub.d       	$a3, $a3, $a1
    458c:	400048e0 	beqz        	$a3, 72(0x48)	# 45d4 <_ZN4core5slice6memchr19memchr_general_case17hd0c4588bd91c18c2E+0x64>
    4590:	00129cc4 	sltu        	$a0, $a2, $a3
    4594:	00408084 	slli.w      	$a0, $a0, 0x0
    4598:	001390e7 	masknez     	$a3, $a3, $a0
    459c:	001310c4 	maskeqz     	$a0, $a2, $a0
    45a0:	00151c84 	or          	$a0, $a0, $a3
    45a4:	40003080 	beqz        	$a0, 48(0x30)	# 45d4 <_ZN4core5slice6memchr19memchr_general_case17hd0c4588bd91c18c2E+0x64>
    45a8:	03800007 	ori         	$a3, $zero, 0x0
    45ac:	0343fd09 	andi        	$a5, $a4, 0xff
    45b0:	00109caa 	add.d       	$a6, $a1, $a3
    45b4:	2a00014a 	ld.bu       	$a6, $a6, 0
    45b8:	58010549 	beq         	$a6, $a5, 260(0x104)	# 46bc <_ZN4core5slice6memchr19memchr_general_case17hd0c4588bd91c18c2E+0x14c>
    45bc:	02c004e7 	addi.d      	$a3, $a3, 1(0x1)
    45c0:	5ffff087 	bne         	$a0, $a3, -16(0x3fff0)	# 45b0 <_ZN4core5slice6memchr19memchr_general_case17hd0c4588bd91c18c2E+0x40>
    45c4:	02ffc0c7 	addi.d      	$a3, $a2, -16(0xff0)
    45c8:	001290e9 	sltu        	$a5, $a3, $a0
    45cc:	58001120 	beq         	$a5, $zero, 16(0x10)	# 45dc <_ZN4core5slice6memchr19memchr_general_case17hd0c4588bd91c18c2E+0x6c>
    45d0:	50009800 	b           	152(0x98)	# 4668 <_ZN4core5slice6memchr19memchr_general_case17hd0c4588bd91c18c2E+0xf8>
    45d4:	02ffc0c7 	addi.d      	$a3, $a2, -16(0xff0)
    45d8:	03800004 	ori         	$a0, $zero, 0x0
    45dc:	1402020a 	lu12i.w     	$a6, 4112(0x1010)
    45e0:	0343fd09 	andi        	$a5, $a4, 0xff
    45e4:	1501010b 	lu12i.w     	$a7, -522232(0x80808)
    45e8:	0384054a 	ori         	$a6, $a6, 0x101
    45ec:	0382016b 	ori         	$a7, $a7, 0x80
    45f0:	1620202a 	lu32i.d     	$a6, 65793(0x10101)
    45f4:	0300414a 	lu52i.d     	$a6, $a6, 16(0x10)
    45f8:	001da929 	mul.d       	$a5, $a5, $a6
    45fc:	15fdfdea 	lu12i.w     	$a6, -4113(0xfefef)
    4600:	03bbfd4a 	ori         	$a6, $a6, 0xeff
    4604:	380c10ac 	ldx.d       	$t0, $a1, $a0
    4608:	0015014d 	move        	$t1, $a6
    460c:	17dfdfcd 	lu32i.d     	$t1, -65794(0xefefe)
    4610:	033fbdad 	lu52i.d     	$t1, $t1, -17(0xfef)
    4614:	0015a58c 	xor         	$t0, $t0, $a5
    4618:	0010b58e 	add.d       	$t2, $t0, $t1
    461c:	0016b1cc 	andn        	$t0, $t2, $t0
    4620:	001090ae 	add.d       	$t2, $a1, $a0
    4624:	28c021ce 	ld.d        	$t2, $t2, 8(0x8)
    4628:	0015a5ce 	xor         	$t2, $t2, $a5
    462c:	0010b5cd 	add.d       	$t1, $t2, $t1
    4630:	0016b9ad 	andn        	$t1, $t1, $t2
    4634:	001531ac 	or          	$t0, $t1, $t0
    4638:	0015016d 	move        	$t1, $a7
    463c:	1610100d 	lu32i.d     	$t1, 32896(0x8080)
    4640:	032021ad 	lu52i.d     	$t1, $t1, -2040(0x808)
    4644:	0014b58c 	and         	$t0, $t0, $t1
    4648:	44001580 	bnez        	$t0, 20(0x14)	# 465c <_ZN4core5slice6memchr19memchr_general_case17hd0c4588bd91c18c2E+0xec>
    464c:	02c04084 	addi.d      	$a0, $a0, 16(0x10)
    4650:	001290ec 	sltu        	$t0, $a3, $a0
    4654:	03c0058c 	xori        	$t0, $t0, 0x1
    4658:	5fffad80 	bne         	$t0, $zero, -84(0x3ffac)	# 4604 <_ZN4core5slice6memchr19memchr_general_case17hd0c4588bd91c18c2E+0x94>
    465c:	001290c7 	sltu        	$a3, $a2, $a0
    4660:	03c004e7 	xori        	$a3, $a3, 0x1
    4664:	580070e0 	beq         	$a3, $zero, 112(0x70)	# 46d4 <_ZN4core5slice6memchr19memchr_general_case17hd0c4588bd91c18c2E+0x164>
    4668:	5c001486 	bne         	$a0, $a2, 20(0x14)	# 467c <_ZN4core5slice6memchr19memchr_general_case17hd0c4588bd91c18c2E+0x10c>
    466c:	03800006 	ori         	$a2, $zero, 0x0
    4670:	001500c5 	move        	$a1, $a2
    4674:	001090c7 	add.d       	$a3, $a2, $a0
    4678:	50004800 	b           	72(0x48)	# 46c0 <_ZN4core5slice6memchr19memchr_general_case17hd0c4588bd91c18c2E+0x150>
    467c:	001090a9 	add.d       	$a5, $a1, $a0
    4680:	03800005 	ori         	$a1, $zero, 0x0
    4684:	001190c7 	sub.d       	$a3, $a2, $a0
    4688:	0343fd08 	andi        	$a4, $a4, 0xff
    468c:	001500a6 	move        	$a2, $a1
    4690:	0010992a 	add.d       	$a6, $a5, $a2
    4694:	2a00014a 	ld.bu       	$a6, $a6, 0
    4698:	58001948 	beq         	$a6, $a4, 24(0x18)	# 46b0 <_ZN4core5slice6memchr19memchr_general_case17hd0c4588bd91c18c2E+0x140>
    469c:	02c004c6 	addi.d      	$a2, $a2, 1(0x1)
    46a0:	5ffff0e6 	bne         	$a3, $a2, -16(0x3fff0)	# 4690 <_ZN4core5slice6memchr19memchr_general_case17hd0c4588bd91c18c2E+0x120>
    46a4:	001500e6 	move        	$a2, $a3
    46a8:	001090e7 	add.d       	$a3, $a3, $a0
    46ac:	50001400 	b           	20(0x14)	# 46c0 <_ZN4core5slice6memchr19memchr_general_case17hd0c4588bd91c18c2E+0x150>
    46b0:	03800405 	ori         	$a1, $zero, 0x1
    46b4:	001090c7 	add.d       	$a3, $a2, $a0
    46b8:	50000800 	b           	8(0x8)	# 46c0 <_ZN4core5slice6memchr19memchr_general_case17hd0c4588bd91c18c2E+0x150>
    46bc:	03800405 	ori         	$a1, $zero, 0x1
    46c0:	28c02061 	ld.d        	$ra, $sp, 8(0x8)
    46c4:	001500a4 	move        	$a0, $a1
    46c8:	001500e5 	move        	$a1, $a3
    46cc:	02c04063 	addi.d      	$sp, $sp, 16(0x10)
    46d0:	4c000020 	jirl        	$zero, $ra, 0
    46d4:	1c000087 	pcaddu12i   	$a3, 4(0x4)
    46d8:	02f810e7 	addi.d      	$a3, $a3, -508(0xe04)
    46dc:	001500c5 	move        	$a1, $a2
    46e0:	001500e6 	move        	$a2, $a3
    46e4:	57e4f7ff 	bl          	-6924(0xfffe4f4)	# 2bd8 <_ZN4core5slice5index26slice_start_index_len_fail17h126875fde9d4000dE>
    46e8:	002a0000 	break       	0x0
    46ec:	00000000 	0x00000000

00000000000046f0 <_ZN4core6option13expect_failed17ha3fd878ee99bb576E>:
    46f0:	02ff8063 	addi.d      	$sp, $sp, -32(0xfe0)
    46f4:	29c06061 	st.d        	$ra, $sp, 24(0x18)
    46f8:	29c04065 	st.d        	$a1, $sp, 16(0x10)
    46fc:	29c02064 	st.d        	$a0, $sp, 8(0x8)
    4700:	02c02064 	addi.d      	$a0, $sp, 8(0x8)
    4704:	001500c5 	move        	$a1, $a2
    4708:	54000800 	bl          	8(0x8)	# 4710 <_ZN4core9panicking13panic_display17h8d640abb0a74a961E>
    470c:	002a0000 	break       	0x0

0000000000004710 <_ZN4core9panicking13panic_display17h8d640abb0a74a961E>:
    4710:	02fec063 	addi.d      	$sp, $sp, -80(0xfb0)
    4714:	29c12061 	st.d        	$ra, $sp, 72(0x48)
    4718:	03800408 	ori         	$a4, $zero, 0x1
    471c:	03800006 	ori         	$a2, $zero, 0x0
    4720:	02c0e067 	addi.d      	$a3, $sp, 56(0x38)
    4724:	29c0c068 	st.d        	$a4, $sp, 48(0x30)
    4728:	29c0a067 	st.d        	$a3, $sp, 40(0x28)
    472c:	29c06066 	st.d        	$a2, $sp, 24(0x18)
    4730:	29c04068 	st.d        	$a4, $sp, 16(0x10)
    4734:	1c000086 	pcaddu12i   	$a2, 4(0x4)
    4738:	02f6f0c6 	addi.d      	$a2, $a2, -580(0xdbc)
    473c:	29c02066 	st.d        	$a2, $sp, 8(0x8)
    4740:	1c000006 	pcaddu12i   	$a2, 0
    4744:	02e740c6 	addi.d      	$a2, $a2, -1584(0x9d0)
    4748:	29c10066 	st.d        	$a2, $sp, 64(0x40)
    474c:	29c0e064 	st.d        	$a0, $sp, 56(0x38)
    4750:	02c02064 	addi.d      	$a0, $sp, 8(0x8)
    4754:	57d73fff 	bl          	-10436(0xfffd73c)	# 1e90 <_ZN4core9panicking9panic_fmt17h7deed37ee899fd65E>
    4758:	002a0000 	break       	0x0
    475c:	00000000 	0x00000000

0000000000004760 <_ZN71_$LT$core..ops..range..Range$LT$Idx$GT$$u20$as$u20$core..fmt..Debug$GT$3fmt17h0d43cd8b164ce752E>:
    4760:	02fec063 	addi.d      	$sp, $sp, -80(0xfb0)
    4764:	29c12061 	st.d        	$ra, $sp, 72(0x48)
    4768:	29c10079 	st.d        	$s2, $sp, 64(0x40)
    476c:	29c0e078 	st.d        	$s1, $sp, 56(0x38)
    4770:	29c0c077 	st.d        	$s0, $sp, 48(0x30)
    4774:	00150099 	move        	$s2, $a0
    4778:	2880c0a4 	ld.w        	$a0, $a1, 48(0x30)
    477c:	001500b7 	move        	$s0, $a1
    4780:	03404085 	andi        	$a1, $a0, 0x10
    4784:	44002ca0 	bnez        	$a1, 44(0x2c)	# 47b0 <_ZN71_$LT$core..ops..range..Range$LT$Idx$GT$$u20$as$u20$core..fmt..Debug$GT$3fmt17h0d43cd8b164ce752E+0x50>
    4788:	28c00325 	ld.d        	$a1, $s2, 0
    478c:	03408084 	andi        	$a0, $a0, 0x20
    4790:	44004080 	bnez        	$a0, 64(0x40)	# 47d0 <_ZN71_$LT$core..ops..range..Range$LT$Idx$GT$$u20$as$u20$core..fmt..Debug$GT$3fmt17h0d43cd8b164ce752E+0x70>
    4794:	03800418 	ori         	$s1, $zero, 0x1
    4798:	001500a4 	move        	$a0, $a1
    479c:	001502e6 	move        	$a2, $s0
    47a0:	00150305 	move        	$a1, $s1
    47a4:	57f417ff 	bl          	-3052(0xffff414)	# 3bb8 <_ZN4core3fmt3num3imp7fmt_u6417h1e59b8223145771dE.llvm.4803403633740665608>
    47a8:	58003c80 	beq         	$a0, $zero, 60(0x3c)	# 47e4 <_ZN71_$LT$core..ops..range..Range$LT$Idx$GT$$u20$as$u20$core..fmt..Debug$GT$3fmt17h0d43cd8b164ce752E+0x84>
    47ac:	5000c400 	b           	196(0xc4)	# 4870 <_ZN71_$LT$core..ops..range..Range$LT$Idx$GT$$u20$as$u20$core..fmt..Debug$GT$3fmt17h0d43cd8b164ce752E+0x110>
    47b0:	28c00325 	ld.d        	$a1, $s2, 0
    47b4:	1c000044 	pcaddu12i   	$a0, 2(0x2)
    47b8:	02ccec84 	addi.d      	$a0, $a0, 827(0x33b)
    47bc:	001502e6 	move        	$a2, $s0
    47c0:	54034800 	bl          	840(0x348)	# 4b08 <_ZN4core3fmt3num12GenericRadix7fmt_int17hded4f09ad8add160E>
    47c4:	58002080 	beq         	$a0, $zero, 32(0x20)	# 47e4 <_ZN71_$LT$core..ops..range..Range$LT$Idx$GT$$u20$as$u20$core..fmt..Debug$GT$3fmt17h0d43cd8b164ce752E+0x84>
    47c8:	03800418 	ori         	$s1, $zero, 0x1
    47cc:	5000a400 	b           	164(0xa4)	# 4870 <_ZN71_$LT$core..ops..range..Range$LT$Idx$GT$$u20$as$u20$core..fmt..Debug$GT$3fmt17h0d43cd8b164ce752E+0x110>
    47d0:	1c000044 	pcaddu12i   	$a0, 2(0x2)
    47d4:	02cc7c84 	addi.d      	$a0, $a0, 799(0x31f)
    47d8:	001502e6 	move        	$a2, $s0
    47dc:	5403dc00 	bl          	988(0x3dc)	# 4bb8 <_ZN4core3fmt3num12GenericRadix7fmt_int17h7023761a67d263f0E>
    47e0:	5fffe880 	bne         	$a0, $zero, -24(0x3ffe8)	# 47c8 <_ZN71_$LT$core..ops..range..Range$LT$Idx$GT$$u20$as$u20$core..fmt..Debug$GT$3fmt17h0d43cd8b164ce752E+0x68>
    47e4:	03800004 	ori         	$a0, $zero, 0x0
    47e8:	29c0a064 	st.d        	$a0, $sp, 40(0x28)
    47ec:	1c000045 	pcaddu12i   	$a1, 2(0x2)
    47f0:	02d1d0a5 	addi.d      	$a1, $a1, 1140(0x474)
    47f4:	29c08065 	st.d        	$a1, $sp, 32(0x20)
    47f8:	29c04064 	st.d        	$a0, $sp, 16(0x10)
    47fc:	03800404 	ori         	$a0, $zero, 0x1
    4800:	02c00065 	addi.d      	$a1, $sp, 0
    4804:	29c02064 	st.d        	$a0, $sp, 8(0x8)
    4808:	1c000084 	pcaddu12i   	$a0, 4(0x4)
    480c:	02f3e084 	addi.d      	$a0, $a0, -776(0xcf8)
    4810:	29c00064 	st.d        	$a0, $sp, 0
    4814:	001502e4 	move        	$a0, $s0
    4818:	57e0e3ff 	bl          	-7968(0xfffe0e0)	# 28f8 <_ZN4core3fmt9Formatter9write_fmt17hccc0fde06b12e2cbE>
    481c:	03800418 	ori         	$s1, $zero, 0x1
    4820:	44005080 	bnez        	$a0, 80(0x50)	# 4870 <_ZN71_$LT$core..ops..range..Range$LT$Idx$GT$$u20$as$u20$core..fmt..Debug$GT$3fmt17h0d43cd8b164ce752E+0x110>
    4824:	2880c2e4 	ld.w        	$a0, $s0, 48(0x30)
    4828:	03404085 	andi        	$a1, $a0, 0x10
    482c:	440028a0 	bnez        	$a1, 40(0x28)	# 4854 <_ZN71_$LT$core..ops..range..Range$LT$Idx$GT$$u20$as$u20$core..fmt..Debug$GT$3fmt17h0d43cd8b164ce752E+0xf4>
    4830:	28c02326 	ld.d        	$a2, $s2, 8(0x8)
    4834:	03408084 	andi        	$a0, $a0, 0x20
    4838:	44005480 	bnez        	$a0, 84(0x54)	# 488c <_ZN71_$LT$core..ops..range..Range$LT$Idx$GT$$u20$as$u20$core..fmt..Debug$GT$3fmt17h0d43cd8b164ce752E+0x12c>
    483c:	001500c4 	move        	$a0, $a2
    4840:	03800405 	ori         	$a1, $zero, 0x1
    4844:	001502e6 	move        	$a2, $s0
    4848:	57f373ff 	bl          	-3216(0xffff370)	# 3bb8 <_ZN4core3fmt3num3imp7fmt_u6417h1e59b8223145771dE.llvm.4803403633740665608>
    484c:	40002080 	beqz        	$a0, 32(0x20)	# 486c <_ZN71_$LT$core..ops..range..Range$LT$Idx$GT$$u20$as$u20$core..fmt..Debug$GT$3fmt17h0d43cd8b164ce752E+0x10c>
    4850:	50002000 	b           	32(0x20)	# 4870 <_ZN71_$LT$core..ops..range..Range$LT$Idx$GT$$u20$as$u20$core..fmt..Debug$GT$3fmt17h0d43cd8b164ce752E+0x110>
    4854:	28c02325 	ld.d        	$a1, $s2, 8(0x8)
    4858:	1c000044 	pcaddu12i   	$a0, 2(0x2)
    485c:	02ca5c84 	addi.d      	$a0, $a0, 663(0x297)
    4860:	001502e6 	move        	$a2, $s0
    4864:	5402a400 	bl          	676(0x2a4)	# 4b08 <_ZN4core3fmt3num12GenericRadix7fmt_int17hded4f09ad8add160E>
    4868:	5c000880 	bne         	$a0, $zero, 8(0x8)	# 4870 <_ZN71_$LT$core..ops..range..Range$LT$Idx$GT$$u20$as$u20$core..fmt..Debug$GT$3fmt17h0d43cd8b164ce752E+0x110>
    486c:	03800018 	ori         	$s1, $zero, 0x0
    4870:	00150304 	move        	$a0, $s1
    4874:	28c0c077 	ld.d        	$s0, $sp, 48(0x30)
    4878:	28c0e078 	ld.d        	$s1, $sp, 56(0x38)
    487c:	28c10079 	ld.d        	$s2, $sp, 64(0x40)
    4880:	28c12061 	ld.d        	$ra, $sp, 72(0x48)
    4884:	02c14063 	addi.d      	$sp, $sp, 80(0x50)
    4888:	4c000020 	jirl        	$zero, $ra, 0
    488c:	001500c5 	move        	$a1, $a2
    4890:	1c000044 	pcaddu12i   	$a0, 2(0x2)
    4894:	02c97c84 	addi.d      	$a0, $a0, 607(0x25f)
    4898:	001502e6 	move        	$a2, $s0
    489c:	54031c00 	bl          	796(0x31c)	# 4bb8 <_ZN4core3fmt3num12GenericRadix7fmt_int17h7023761a67d263f0E>
    48a0:	5bffcc80 	beq         	$a0, $zero, -52(0x3ffcc)	# 486c <_ZN71_$LT$core..ops..range..Range$LT$Idx$GT$$u20$as$u20$core..fmt..Debug$GT$3fmt17h0d43cd8b164ce752E+0x10c>
    48a4:	53ffcfff 	b           	-52(0xfffffcc)	# 4870 <_ZN71_$LT$core..ops..range..Range$LT$Idx$GT$$u20$as$u20$core..fmt..Debug$GT$3fmt17h0d43cd8b164ce752E+0x110>

00000000000048a8 <_ZN102_$LT$core..iter..adapters..map..Map$LT$I$C$F$GT$$u20$as$u20$core..iter..traits..iterator..Iterator$GT$4fold17h9daeac1da71383a4E>:
    48a8:	58002085 	beq         	$a0, $a1, 32(0x20)	# 48c8 <_ZN102_$LT$core..iter..adapters..map..Map$LT$I$C$F$GT$$u20$as$u20$core..iter..traits..iterator..Iterator$GT$4fold17h9daeac1da71383a4E+0x20>
    48ac:	02befc07 	addi.w      	$a3, $zero, -65(0xfbf)
    48b0:	28000088 	ld.b        	$a4, $a0, 0
    48b4:	02c00484 	addi.d      	$a0, $a0, 1(0x1)
    48b8:	001220e8 	slt         	$a4, $a3, $a4
    48bc:	00df0108 	bstrpick.d  	$a4, $a4, 0x1f, 0x0
    48c0:	0010a0c6 	add.d       	$a2, $a2, $a4
    48c4:	5fffeca4 	bne         	$a1, $a0, -20(0x3ffec)	# 48b0 <_ZN102_$LT$core..iter..adapters..map..Map$LT$I$C$F$GT$$u20$as$u20$core..iter..traits..iterator..Iterator$GT$4fold17h9daeac1da71383a4E+0x8>
    48c8:	001500c4 	move        	$a0, $a2
    48cc:	4c000020 	jirl        	$zero, $ra, 0

00000000000048d0 <_ZN4core3ptr116drop_in_place$LT$$RF$core..iter..adapters..map..Map$LT$core..str..iter..Chars$C$core..str..CharEscapeDefault$GT$$GT$17h2995dba190ca832cE>:
    48d0:	4c000020 	jirl        	$zero, $ra, 0
    48d4:	00000000 	0x00000000

00000000000048d8 <_ZN42_$LT$$RF$T$u20$as$u20$core..fmt..Debug$GT$3fmt17h66ad55bb69a6b19eE>:
    48d8:	02ff0063 	addi.d      	$sp, $sp, -64(0xfc0)
    48dc:	29c0e061 	st.d        	$ra, $sp, 56(0x38)
    48e0:	29c0c078 	st.d        	$s1, $sp, 48(0x30)
    48e4:	29c0a077 	st.d        	$s0, $sp, 40(0x28)
    48e8:	28c00098 	ld.d        	$s1, $a0, 0
    48ec:	03800406 	ori         	$a2, $zero, 0x1
    48f0:	2a000304 	ld.bu       	$a0, $s1, 0
    48f4:	5c004486 	bne         	$a0, $a2, 68(0x44)	# 4938 <_ZN42_$LT$$RF$T$u20$as$u20$core..fmt..Debug$GT$3fmt17h66ad55bb69a6b19eE+0x60>
    48f8:	02c02077 	addi.d      	$s0, $sp, 8(0x8)
    48fc:	1c000046 	pcaddu12i   	$a2, 2(0x2)
    4900:	02cd90c6 	addi.d      	$a2, $a2, 868(0x364)
    4904:	03801007 	ori         	$a3, $zero, 0x4
    4908:	001502e4 	move        	$a0, $s0
    490c:	57e9bfff 	bl          	-5700(0xfffe9bc)	# 32c8 <_ZN4core3fmt8builders15debug_tuple_new17h930958c2db6c8d0dE>
    4910:	02c00704 	addi.d      	$a0, $s1, 1(0x1)
    4914:	02c08065 	addi.d      	$a1, $sp, 32(0x20)
    4918:	29c08064 	st.d        	$a0, $sp, 32(0x20)
    491c:	1c000086 	pcaddu12i   	$a2, 4(0x4)
    4920:	02efd0c6 	addi.d      	$a2, $a2, -1036(0xbf4)
    4924:	001502e4 	move        	$a0, $s0
    4928:	57ea13ff 	bl          	-5616(0xfffea10)	# 3338 <_ZN4core3fmt8builders10DebugTuple5field17h7eba59ee16627dbfE>
    492c:	001502e4 	move        	$a0, $s0
    4930:	57eb6bff 	bl          	-5272(0xfffeb68)	# 3498 <_ZN4core3fmt8builders10DebugTuple6finish17h1d03b6ee6f22100bE>
    4934:	50002000 	b           	32(0x20)	# 4954 <_ZN42_$LT$$RF$T$u20$as$u20$core..fmt..Debug$GT$3fmt17h66ad55bb69a6b19eE+0x7c>
    4938:	28c080a4 	ld.d        	$a0, $a1, 32(0x20)
    493c:	28c0a0a5 	ld.d        	$a1, $a1, 40(0x28)
    4940:	03801006 	ori         	$a2, $zero, 0x4
    4944:	28c060a7 	ld.d        	$a3, $a1, 24(0x18)
    4948:	1c000045 	pcaddu12i   	$a1, 2(0x2)
    494c:	02cc70a5 	addi.d      	$a1, $a1, 796(0x31c)
    4950:	4c0000e1 	jirl        	$ra, $a3, 0
    4954:	28c0a077 	ld.d        	$s0, $sp, 40(0x28)
    4958:	28c0c078 	ld.d        	$s1, $sp, 48(0x30)
    495c:	28c0e061 	ld.d        	$ra, $sp, 56(0x38)
    4960:	02c10063 	addi.d      	$sp, $sp, 64(0x40)
    4964:	4c000020 	jirl        	$zero, $ra, 0

0000000000004968 <_ZN4core7unicode12unicode_data15grapheme_extend6lookup17hb7139100c1dca3fdE>:
    4968:	02ffc063 	addi.d      	$sp, $sp, -16(0xff0)
    496c:	29c02061 	st.d        	$ra, $sp, 8(0x8)
    4970:	00408085 	slli.w      	$a1, $a0, 0x0
    4974:	03808008 	ori         	$a4, $zero, 0x20
    4978:	03800004 	ori         	$a0, $zero, 0x0
    497c:	0040aca6 	slli.w      	$a2, $a1, 0xb
    4980:	00150107 	move        	$a3, $a4
    4984:	50001400 	b           	20(0x14)	# 4998 <_ZN4core7unicode12unicode_data15grapheme_extend6lookup17hb7139100c1dca3fdE+0x30>
    4988:	02c00504 	addi.d      	$a0, $a4, 1(0x1)
    498c:	001190e8 	sub.d       	$a4, $a3, $a0
    4990:	00129c89 	sltu        	$a5, $a0, $a3
    4994:	58004120 	beq         	$a5, $zero, 64(0x40)	# 49d4 <_ZN4core7unicode12unicode_data15grapheme_extend6lookup17hb7139100c1dca3fdE+0x6c>
    4998:	00450508 	srli.d      	$a4, $a4, 0x1
    499c:	1c00004a 	pcaddu12i   	$a6, 2(0x2)
    49a0:	02cbe14a 	addi.d      	$a6, $a6, 760(0x2f8)
    49a4:	00109108 	add.d       	$a4, $a4, $a0
    49a8:	00410909 	slli.d      	$a5, $a4, 0x2
    49ac:	38082549 	ldx.w       	$a5, $a6, $a5
    49b0:	0040ad29 	slli.w      	$a5, $a5, 0xb
    49b4:	6bffd526 	bltu        	$a5, $a2, -44(0x3ffd4)	# 4988 <_ZN4core7unicode12unicode_data15grapheme_extend6lookup17hb7139100c1dca3fdE+0x20>
    49b8:	58001926 	beq         	$a5, $a2, 24(0x18)	# 49d0 <_ZN4core7unicode12unicode_data15grapheme_extend6lookup17hb7139100c1dca3fdE+0x68>
    49bc:	00150107 	move        	$a3, $a4
    49c0:	001190e8 	sub.d       	$a4, $a3, $a0
    49c4:	00129c89 	sltu        	$a5, $a0, $a3
    49c8:	5fffd120 	bne         	$a5, $zero, -48(0x3ffd0)	# 4998 <_ZN4core7unicode12unicode_data15grapheme_extend6lookup17hb7139100c1dca3fdE+0x30>
    49cc:	50000800 	b           	8(0x8)	# 49d4 <_ZN4core7unicode12unicode_data15grapheme_extend6lookup17hb7139100c1dca3fdE+0x6c>
    49d0:	02c00504 	addi.d      	$a0, $a4, 1(0x1)
    49d4:	03807c07 	ori         	$a3, $zero, 0x1f
    49d8:	001290e6 	sltu        	$a2, $a3, $a0
    49dc:	5c00fcc0 	bne         	$a2, $zero, 252(0xfc)	# 4ad8 <_ZN4core7unicode12unicode_data15grapheme_extend6lookup17hb7139100c1dca3fdE+0x170>
    49e0:	1c000046 	pcaddu12i   	$a2, 2(0x2)
    49e4:	02cad0c6 	addi.d      	$a2, $a2, 692(0x2b4)
    49e8:	5c003487 	bne         	$a0, $a3, 52(0x34)	# 4a1c <_ZN4core7unicode12unicode_data15grapheme_extend6lookup17hb7139100c1dca3fdE+0xb4>
    49ec:	038b0c08 	ori         	$a4, $zero, 0x2c3
    49f0:	02fffc87 	addi.d      	$a3, $a0, -1(0xfff)
    49f4:	00129c89 	sltu        	$a5, $a0, $a3
    49f8:	5c004920 	bne         	$a5, $zero, 72(0x48)	# 4a40 <_ZN4core7unicode12unicode_data15grapheme_extend6lookup17hb7139100c1dca3fdE+0xd8>
    49fc:	03808009 	ori         	$a5, $zero, 0x20
    4a00:	6c00ece9 	bgeu        	$a3, $a5, 236(0xec)	# 4aec <_ZN4core7unicode12unicode_data15grapheme_extend6lookup17hb7139100c1dca3fdE+0x184>
    4a04:	004108e7 	slli.d      	$a3, $a3, 0x2
    4a08:	1c000049 	pcaddu12i   	$a5, 2(0x2)
    4a0c:	02ca3129 	addi.d      	$a5, $a5, 652(0x28c)
    4a10:	38081d27 	ldx.w       	$a3, $a5, $a3
    4a14:	007480e7 	bstrpick.w  	$a3, $a3, 0x14, 0x0
    4a18:	50002c00 	b           	44(0x2c)	# 4a44 <_ZN4core7unicode12unicode_data15grapheme_extend6lookup17hb7139100c1dca3fdE+0xdc>
    4a1c:	1c000047 	pcaddu12i   	$a3, 2(0x2)
    4a20:	02c9e0e7 	addi.d      	$a3, $a3, 632(0x278)
    4a24:	002c9c87 	alsl.d      	$a3, $a0, $a3, 0x2
    4a28:	288010e7 	ld.w        	$a3, $a3, 4(0x4)
    4a2c:	0044d4e7 	srli.w      	$a3, $a3, 0x15
    4a30:	00df00e8 	bstrpick.d  	$a4, $a3, 0x1f, 0x0
    4a34:	02fffc87 	addi.d      	$a3, $a0, -1(0xfff)
    4a38:	00129c89 	sltu        	$a5, $a0, $a3
    4a3c:	5bffc120 	beq         	$a5, $zero, -64(0x3ffc0)	# 49fc <_ZN4core7unicode12unicode_data15grapheme_extend6lookup17hb7139100c1dca3fdE+0x94>
    4a40:	03800007 	ori         	$a3, $zero, 0x0
    4a44:	00410884 	slli.d      	$a0, $a0, 0x2
    4a48:	380810c4 	ldx.w       	$a0, $a2, $a0
    4a4c:	0044d484 	srli.w      	$a0, $a0, 0x15
    4a50:	00df0086 	bstrpick.d  	$a2, $a0, 0x1f, 0x0
    4a54:	00141804 	nor         	$a0, $zero, $a2
    4a58:	00109104 	add.d       	$a0, $a4, $a0
    4a5c:	40005480 	beqz        	$a0, 84(0x54)	# 4ab0 <_ZN4core7unicode12unicode_data15grapheme_extend6lookup17hb7139100c1dca3fdE+0x148>
    4a60:	038b0c04 	ori         	$a0, $zero, 0x2c3
    4a64:	00111ca5 	sub.w       	$a1, $a1, $a3
    4a68:	00129887 	sltu        	$a3, $a0, $a2
    4a6c:	004080e7 	slli.w      	$a3, $a3, 0x0
    4a70:	00139c84 	masknez     	$a0, $a0, $a3
    4a74:	00131cc7 	maskeqz     	$a3, $a2, $a3
    4a78:	001510e4 	or          	$a0, $a3, $a0
    4a7c:	02fffd07 	addi.d      	$a3, $a4, -1(0xfff)
    4a80:	03800008 	ori         	$a4, $zero, 0x0
    4a84:	58004086 	beq         	$a0, $a2, 64(0x40)	# 4ac4 <_ZN4core7unicode12unicode_data15grapheme_extend6lookup17hb7139100c1dca3fdE+0x15c>
    4a88:	1c000049 	pcaddu12i   	$a5, 2(0x2)
    4a8c:	02ca3129 	addi.d      	$a5, $a5, 652(0x28c)
    4a90:	00109929 	add.d       	$a5, $a5, $a2
    4a94:	2a000129 	ld.bu       	$a5, $a5, 0
    4a98:	00102508 	add.w       	$a4, $a4, $a5
    4a9c:	0012a0a9 	sltu        	$a5, $a1, $a4
    4aa0:	5c001120 	bne         	$a5, $zero, 16(0x10)	# 4ab0 <_ZN4core7unicode12unicode_data15grapheme_extend6lookup17hb7139100c1dca3fdE+0x148>
    4aa4:	02c004c6 	addi.d      	$a2, $a2, 1(0x1)
    4aa8:	5fffdce6 	bne         	$a3, $a2, -36(0x3ffdc)	# 4a84 <_ZN4core7unicode12unicode_data15grapheme_extend6lookup17hb7139100c1dca3fdE+0x11c>
    4aac:	001500e6 	move        	$a2, $a3
    4ab0:	28c02061 	ld.d        	$ra, $sp, 8(0x8)
    4ab4:	004080c4 	slli.w      	$a0, $a2, 0x0
    4ab8:	03400484 	andi        	$a0, $a0, 0x1
    4abc:	02c04063 	addi.d      	$sp, $sp, 16(0x10)
    4ac0:	4c000020 	jirl        	$zero, $ra, 0
    4ac4:	038b0c05 	ori         	$a1, $zero, 0x2c3
    4ac8:	1c000086 	pcaddu12i   	$a2, 4(0x4)
    4acc:	02ea00c6 	addi.d      	$a2, $a2, -1408(0xa80)
    4ad0:	57d35bff 	bl          	-11432(0xfffd358)	# 1e28 <_ZN4core9panicking18panic_bounds_check17h70a8c2dfc2459088E>
    4ad4:	002a0000 	break       	0x0
    4ad8:	03808005 	ori         	$a1, $zero, 0x20
    4adc:	1c000086 	pcaddu12i   	$a2, 4(0x4)
    4ae0:	02e950c6 	addi.d      	$a2, $a2, -1452(0xa54)
    4ae4:	57d347ff 	bl          	-11452(0xfffd344)	# 1e28 <_ZN4core9panicking18panic_bounds_check17h70a8c2dfc2459088E>
    4ae8:	002a0000 	break       	0x0
    4aec:	03808005 	ori         	$a1, $zero, 0x20
    4af0:	1c000086 	pcaddu12i   	$a2, 4(0x4)
    4af4:	02e9c0c6 	addi.d      	$a2, $a2, -1424(0xa70)
    4af8:	001500e4 	move        	$a0, $a3
    4afc:	57d32fff 	bl          	-11476(0xfffd32c)	# 1e28 <_ZN4core9panicking18panic_bounds_check17h70a8c2dfc2459088E>
    4b00:	002a0000 	break       	0x0
    4b04:	00000000 	0x00000000

0000000000004b08 <_ZN4core3fmt3num12GenericRadix7fmt_int17hded4f09ad8add160E>:
    4b08:	02fd4063 	addi.d      	$sp, $sp, -176(0xf50)
    4b0c:	29c2a061 	st.d        	$ra, $sp, 168(0xa8)
    4b10:	29c2807b 	st.d        	$s4, $sp, 160(0xa0)
    4b14:	29c2607a 	st.d        	$s3, $sp, 152(0x98)
    4b18:	29c24079 	st.d        	$s2, $sp, 144(0x90)
    4b1c:	29c22078 	st.d        	$s1, $sp, 136(0x88)
    4b20:	29c20077 	st.d        	$s0, $sp, 128(0x80)
    4b24:	001500d7 	move        	$s0, $a2
    4b28:	001500b8 	move        	$s1, $a1
    4b2c:	03800019 	ori         	$s2, $zero, 0x0
    4b30:	02c0007a 	addi.d      	$s3, $sp, 0
    4b34:	03403f04 	andi        	$a0, $s1, 0xf
    4b38:	0010e75b 	add.d       	$s4, $s3, $s2
    4b3c:	57f2ffff 	bl          	-3332(0xffff2fc)	# 3e38 <_ZN73_$LT$core..fmt..num..LowerHex$u20$as$u20$core..fmt..num..GenericRadix$GT$5digit17h82926a1bf5a1cfa4E>
    4b40:	02ffff39 	addi.d      	$s2, $s2, -1(0xfff)
    4b44:	00451318 	srli.d      	$s1, $s1, 0x4
    4b48:	2901ff64 	st.b        	$a0, $s4, 127(0x7f)
    4b4c:	47ffeb1f 	bnez        	$s1, -24(0x7fffe8)	# 4b34 <_ZN4core3fmt3num12GenericRadix7fmt_int17hded4f09ad8add160E+0x2c>
    4b50:	02c20324 	addi.d      	$a0, $s2, 128(0x80)
    4b54:	03820405 	ori         	$a1, $zero, 0x81
    4b58:	6c004c85 	bgeu        	$a0, $a1, 76(0x4c)	# 4ba4 <_ZN4core3fmt3num12GenericRadix7fmt_int17hded4f09ad8add160E+0x9c>
    4b5c:	03800004 	ori         	$a0, $zero, 0x0
    4b60:	03800405 	ori         	$a1, $zero, 0x1
    4b64:	1c000046 	pcaddu12i   	$a2, 2(0x2)
    4b68:	02d238c6 	addi.d      	$a2, $a2, 1166(0x48e)
    4b6c:	03800807 	ori         	$a3, $zero, 0x2
    4b70:	0011e489 	sub.d       	$a5, $a0, $s2
    4b74:	0010e744 	add.d       	$a0, $s3, $s2
    4b78:	02c20088 	addi.d      	$a4, $a0, 128(0x80)
    4b7c:	001502e4 	move        	$a0, $s0
    4b80:	57d62bff 	bl          	-10712(0xfffd628)	# 21a8 <_ZN4core3fmt9Formatter12pad_integral17habf59e458b07c8f4E>
    4b84:	28c20077 	ld.d        	$s0, $sp, 128(0x80)
    4b88:	28c22078 	ld.d        	$s1, $sp, 136(0x88)
    4b8c:	28c24079 	ld.d        	$s2, $sp, 144(0x90)
    4b90:	28c2607a 	ld.d        	$s3, $sp, 152(0x98)
    4b94:	28c2807b 	ld.d        	$s4, $sp, 160(0xa0)
    4b98:	28c2a061 	ld.d        	$ra, $sp, 168(0xa8)
    4b9c:	02c2c063 	addi.d      	$sp, $sp, 176(0xb0)
    4ba0:	4c000020 	jirl        	$zero, $ra, 0
    4ba4:	03820005 	ori         	$a1, $zero, 0x80
    4ba8:	1c000086 	pcaddu12i   	$a2, 4(0x4)
    4bac:	02e740c6 	addi.d      	$a2, $a2, -1584(0x9d0)
    4bb0:	57e02bff 	bl          	-8152(0xfffe028)	# 2bd8 <_ZN4core5slice5index26slice_start_index_len_fail17h126875fde9d4000dE>
    4bb4:	002a0000 	break       	0x0

0000000000004bb8 <_ZN4core3fmt3num12GenericRadix7fmt_int17h7023761a67d263f0E>:
    4bb8:	02fd4063 	addi.d      	$sp, $sp, -176(0xf50)
    4bbc:	29c2a061 	st.d        	$ra, $sp, 168(0xa8)
    4bc0:	29c2807b 	st.d        	$s4, $sp, 160(0xa0)
    4bc4:	29c2607a 	st.d        	$s3, $sp, 152(0x98)
    4bc8:	29c24079 	st.d        	$s2, $sp, 144(0x90)
    4bcc:	29c22078 	st.d        	$s1, $sp, 136(0x88)
    4bd0:	29c20077 	st.d        	$s0, $sp, 128(0x80)
    4bd4:	001500d7 	move        	$s0, $a2
    4bd8:	001500b8 	move        	$s1, $a1
    4bdc:	03800019 	ori         	$s2, $zero, 0x0
    4be0:	02c0007a 	addi.d      	$s3, $sp, 0
    4be4:	03403f04 	andi        	$a0, $s1, 0xf
    4be8:	0010e75b 	add.d       	$s4, $s3, $s2
    4bec:	57f2efff 	bl          	-3348(0xffff2ec)	# 3ed8 <_ZN73_$LT$core..fmt..num..UpperHex$u20$as$u20$core..fmt..num..GenericRadix$GT$5digit17h1113d81d0f4b9112E>
    4bf0:	02ffff39 	addi.d      	$s2, $s2, -1(0xfff)
    4bf4:	00451318 	srli.d      	$s1, $s1, 0x4
    4bf8:	2901ff64 	st.b        	$a0, $s4, 127(0x7f)
    4bfc:	47ffeb1f 	bnez        	$s1, -24(0x7fffe8)	# 4be4 <_ZN4core3fmt3num12GenericRadix7fmt_int17h7023761a67d263f0E+0x2c>
    4c00:	02c20324 	addi.d      	$a0, $s2, 128(0x80)
    4c04:	03820405 	ori         	$a1, $zero, 0x81
    4c08:	6c004c85 	bgeu        	$a0, $a1, 76(0x4c)	# 4c54 <_ZN4core3fmt3num12GenericRadix7fmt_int17h7023761a67d263f0E+0x9c>
    4c0c:	03800004 	ori         	$a0, $zero, 0x0
    4c10:	03800405 	ori         	$a1, $zero, 0x1
    4c14:	1c000046 	pcaddu12i   	$a2, 2(0x2)
    4c18:	02cf78c6 	addi.d      	$a2, $a2, 990(0x3de)
    4c1c:	03800807 	ori         	$a3, $zero, 0x2
    4c20:	0011e489 	sub.d       	$a5, $a0, $s2
    4c24:	0010e744 	add.d       	$a0, $s3, $s2
    4c28:	02c20088 	addi.d      	$a4, $a0, 128(0x80)
    4c2c:	001502e4 	move        	$a0, $s0
    4c30:	57d57bff 	bl          	-10888(0xfffd578)	# 21a8 <_ZN4core3fmt9Formatter12pad_integral17habf59e458b07c8f4E>
    4c34:	28c20077 	ld.d        	$s0, $sp, 128(0x80)
    4c38:	28c22078 	ld.d        	$s1, $sp, 136(0x88)
    4c3c:	28c24079 	ld.d        	$s2, $sp, 144(0x90)
    4c40:	28c2607a 	ld.d        	$s3, $sp, 152(0x98)
    4c44:	28c2807b 	ld.d        	$s4, $sp, 160(0xa0)
    4c48:	28c2a061 	ld.d        	$ra, $sp, 168(0xa8)
    4c4c:	02c2c063 	addi.d      	$sp, $sp, 176(0xb0)
    4c50:	4c000020 	jirl        	$zero, $ra, 0
    4c54:	03820005 	ori         	$a1, $zero, 0x80
    4c58:	1c000086 	pcaddu12i   	$a2, 4(0x4)
    4c5c:	02e480c6 	addi.d      	$a2, $a2, -1760(0x920)
    4c60:	57df7bff 	bl          	-8328(0xfffdf78)	# 2bd8 <_ZN4core5slice5index26slice_start_index_len_fail17h126875fde9d4000dE>
    4c64:	002a0000 	break       	0x0

0000000000004c68 <_ZN4core3fmt3num12GenericRadix7fmt_int17h9cb676349ea54c56E>:
    4c68:	02fd4063 	addi.d      	$sp, $sp, -176(0xf50)
    4c6c:	29c2a061 	st.d        	$ra, $sp, 168(0xa8)
    4c70:	29c2807b 	st.d        	$s4, $sp, 160(0xa0)
    4c74:	29c2607a 	st.d        	$s3, $sp, 152(0x98)
    4c78:	29c24079 	st.d        	$s2, $sp, 144(0x90)
    4c7c:	29c22078 	st.d        	$s1, $sp, 136(0x88)
    4c80:	29c20077 	st.d        	$s0, $sp, 128(0x80)
    4c84:	001500d7 	move        	$s0, $a2
    4c88:	004080ba 	slli.w      	$s3, $a1, 0x0
    4c8c:	03800018 	ori         	$s1, $zero, 0x0
    4c90:	02c00079 	addi.d      	$s2, $sp, 0
    4c94:	03403f44 	andi        	$a0, $s3, 0xf
    4c98:	0010e33b 	add.d       	$s4, $s2, $s1
    4c9c:	57f23fff 	bl          	-3524(0xffff23c)	# 3ed8 <_ZN73_$LT$core..fmt..num..UpperHex$u20$as$u20$core..fmt..num..GenericRadix$GT$5digit17h1113d81d0f4b9112E>
    4ca0:	02ffff18 	addi.d      	$s1, $s1, -1(0xfff)
    4ca4:	0067935a 	bstrpick.w  	$s3, $s3, 0x7, 0x4
    4ca8:	2901ff64 	st.b        	$a0, $s4, 127(0x7f)
    4cac:	47ffeb5f 	bnez        	$s3, -24(0x7fffe8)	# 4c94 <_ZN4core3fmt3num12GenericRadix7fmt_int17h9cb676349ea54c56E+0x2c>
    4cb0:	02c20304 	addi.d      	$a0, $s1, 128(0x80)
    4cb4:	03820405 	ori         	$a1, $zero, 0x81
    4cb8:	6c004c85 	bgeu        	$a0, $a1, 76(0x4c)	# 4d04 <_ZN4core3fmt3num12GenericRadix7fmt_int17h9cb676349ea54c56E+0x9c>
    4cbc:	03800004 	ori         	$a0, $zero, 0x0
    4cc0:	03800405 	ori         	$a1, $zero, 0x1
    4cc4:	1c000046 	pcaddu12i   	$a2, 2(0x2)
    4cc8:	02ccb8c6 	addi.d      	$a2, $a2, 814(0x32e)
    4ccc:	03800807 	ori         	$a3, $zero, 0x2
    4cd0:	0011e089 	sub.d       	$a5, $a0, $s1
    4cd4:	0010e324 	add.d       	$a0, $s2, $s1
    4cd8:	02c20088 	addi.d      	$a4, $a0, 128(0x80)
    4cdc:	001502e4 	move        	$a0, $s0
    4ce0:	57d4cbff 	bl          	-11064(0xfffd4c8)	# 21a8 <_ZN4core3fmt9Formatter12pad_integral17habf59e458b07c8f4E>
    4ce4:	28c20077 	ld.d        	$s0, $sp, 128(0x80)
    4ce8:	28c22078 	ld.d        	$s1, $sp, 136(0x88)
    4cec:	28c24079 	ld.d        	$s2, $sp, 144(0x90)
    4cf0:	28c2607a 	ld.d        	$s3, $sp, 152(0x98)
    4cf4:	28c2807b 	ld.d        	$s4, $sp, 160(0xa0)
    4cf8:	28c2a061 	ld.d        	$ra, $sp, 168(0xa8)
    4cfc:	02c2c063 	addi.d      	$sp, $sp, 176(0xb0)
    4d00:	4c000020 	jirl        	$zero, $ra, 0
    4d04:	03820005 	ori         	$a1, $zero, 0x80
    4d08:	1c000086 	pcaddu12i   	$a2, 4(0x4)
    4d0c:	02e1c0c6 	addi.d      	$a2, $a2, -1936(0x870)
    4d10:	57decbff 	bl          	-8504(0xfffdec8)	# 2bd8 <_ZN4core5slice5index26slice_start_index_len_fail17h126875fde9d4000dE>
    4d14:	002a0000 	break       	0x0

0000000000004d18 <_ZN4core3fmt3num12GenericRadix7fmt_int17hc5fc4935b2b2b156E>:
    4d18:	02fd4063 	addi.d      	$sp, $sp, -176(0xf50)
    4d1c:	29c2a061 	st.d        	$ra, $sp, 168(0xa8)
    4d20:	29c2807b 	st.d        	$s4, $sp, 160(0xa0)
    4d24:	29c2607a 	st.d        	$s3, $sp, 152(0x98)
    4d28:	29c24079 	st.d        	$s2, $sp, 144(0x90)
    4d2c:	29c22078 	st.d        	$s1, $sp, 136(0x88)
    4d30:	29c20077 	st.d        	$s0, $sp, 128(0x80)
    4d34:	001500d7 	move        	$s0, $a2
    4d38:	004080ba 	slli.w      	$s3, $a1, 0x0
    4d3c:	03800018 	ori         	$s1, $zero, 0x0
    4d40:	02c00079 	addi.d      	$s2, $sp, 0
    4d44:	03403f44 	andi        	$a0, $s3, 0xf
    4d48:	0010e33b 	add.d       	$s4, $s2, $s1
    4d4c:	57f0efff 	bl          	-3860(0xffff0ec)	# 3e38 <_ZN73_$LT$core..fmt..num..LowerHex$u20$as$u20$core..fmt..num..GenericRadix$GT$5digit17h82926a1bf5a1cfa4E>
    4d50:	02ffff18 	addi.d      	$s1, $s1, -1(0xfff)
    4d54:	0067935a 	bstrpick.w  	$s3, $s3, 0x7, 0x4
    4d58:	2901ff64 	st.b        	$a0, $s4, 127(0x7f)
    4d5c:	47ffeb5f 	bnez        	$s3, -24(0x7fffe8)	# 4d44 <_ZN4core3fmt3num12GenericRadix7fmt_int17hc5fc4935b2b2b156E+0x2c>
    4d60:	02c20304 	addi.d      	$a0, $s1, 128(0x80)
    4d64:	03820405 	ori         	$a1, $zero, 0x81
    4d68:	6c004c85 	bgeu        	$a0, $a1, 76(0x4c)	# 4db4 <_ZN4core3fmt3num12GenericRadix7fmt_int17hc5fc4935b2b2b156E+0x9c>
    4d6c:	03800004 	ori         	$a0, $zero, 0x0
    4d70:	03800405 	ori         	$a1, $zero, 0x1
    4d74:	1c000046 	pcaddu12i   	$a2, 2(0x2)
    4d78:	02c9f8c6 	addi.d      	$a2, $a2, 638(0x27e)
    4d7c:	03800807 	ori         	$a3, $zero, 0x2
    4d80:	0011e089 	sub.d       	$a5, $a0, $s1
    4d84:	0010e324 	add.d       	$a0, $s2, $s1
    4d88:	02c20088 	addi.d      	$a4, $a0, 128(0x80)
    4d8c:	001502e4 	move        	$a0, $s0
    4d90:	57d41bff 	bl          	-11240(0xfffd418)	# 21a8 <_ZN4core3fmt9Formatter12pad_integral17habf59e458b07c8f4E>
    4d94:	28c20077 	ld.d        	$s0, $sp, 128(0x80)
    4d98:	28c22078 	ld.d        	$s1, $sp, 136(0x88)
    4d9c:	28c24079 	ld.d        	$s2, $sp, 144(0x90)
    4da0:	28c2607a 	ld.d        	$s3, $sp, 152(0x98)
    4da4:	28c2807b 	ld.d        	$s4, $sp, 160(0xa0)
    4da8:	28c2a061 	ld.d        	$ra, $sp, 168(0xa8)
    4dac:	02c2c063 	addi.d      	$sp, $sp, 176(0xb0)
    4db0:	4c000020 	jirl        	$zero, $ra, 0
    4db4:	03820005 	ori         	$a1, $zero, 0x80
    4db8:	1c000066 	pcaddu12i   	$a2, 3(0x3)
    4dbc:	02df00c6 	addi.d      	$a2, $a2, 1984(0x7c0)
    4dc0:	57de1bff 	bl          	-8680(0xfffde18)	# 2bd8 <_ZN4core5slice5index26slice_start_index_len_fail17h126875fde9d4000dE>
    4dc4:	002a0000 	break       	0x0

0000000000004dc8 <_ZN4core3ptr25drop_in_place$LT$char$GT$17h3ef25dc3e5d49641E>:
    4dc8:	4c000020 	jirl        	$zero, $ra, 0
    4dcc:	00000000 	0x00000000

0000000000004dd0 <_ZN4core3fmt5Write10write_char17h9480cdd9d96b62dfE>:
    4dd0:	02ffc063 	addi.d      	$sp, $sp, -16(0xff0)
    4dd4:	29c02061 	st.d        	$ra, $sp, 8(0x8)
    4dd8:	03800006 	ori         	$a2, $zero, 0x0
    4ddc:	004080a5 	slli.w      	$a1, $a1, 0x0
    4de0:	29801066 	st.w        	$a2, $sp, 4(0x4)
    4de4:	03820006 	ori         	$a2, $zero, 0x80
    4de8:	6c0010a6 	bgeu        	$a1, $a2, 16(0x10)	# 4df8 <_ZN4core3fmt5Write10write_char17h9480cdd9d96b62dfE+0x28>
    4dec:	29001065 	st.b        	$a1, $sp, 4(0x4)
    4df0:	03800406 	ori         	$a2, $zero, 0x1
    4df4:	50009400 	b           	148(0x94)	# 4e88 <_ZN4core3fmt5Write10write_char17h9480cdd9d96b62dfE+0xb8>
    4df8:	03a00006 	ori         	$a2, $zero, 0x800
    4dfc:	6c0020a6 	bgeu        	$a1, $a2, 32(0x20)	# 4e1c <_ZN4core3fmt5Write10write_char17h9480cdd9d96b62dfE+0x4c>
    4e00:	03800806 	ori         	$a2, $zero, 0x2
    4e04:	004498a7 	srli.w      	$a3, $a1, 0x6
    4e08:	007f18c5 	bstrins.w   	$a1, $a2, 0x1f, 0x6
    4e0c:	03800806 	ori         	$a2, $zero, 0x2
    4e10:	29001465 	st.b        	$a1, $sp, 5(0x5)
    4e14:	038300e5 	ori         	$a1, $a3, 0xc0
    4e18:	50006c00 	b           	108(0x6c)	# 4e84 <_ZN4core3fmt5Write10write_char17h9480cdd9d96b62dfE+0xb4>
    4e1c:	14000206 	lu12i.w     	$a2, 16(0x10)
    4e20:	6c0030a6 	bgeu        	$a1, $a2, 48(0x30)	# 4e50 <_ZN4core3fmt5Write10write_char17h9480cdd9d96b62dfE+0x80>
    4e24:	03800806 	ori         	$a2, $zero, 0x2
    4e28:	001500a7 	move        	$a3, $a1
    4e2c:	004498a8 	srli.w      	$a4, $a1, 0x6
    4e30:	0044b0a5 	srli.w      	$a1, $a1, 0xc
    4e34:	007f18c7 	bstrins.w   	$a3, $a2, 0x1f, 0x6
    4e38:	007f18c8 	bstrins.w   	$a4, $a2, 0x1f, 0x6
    4e3c:	038380a5 	ori         	$a1, $a1, 0xe0
    4e40:	03800c06 	ori         	$a2, $zero, 0x3
    4e44:	29001867 	st.b        	$a3, $sp, 6(0x6)
    4e48:	29001468 	st.b        	$a4, $sp, 5(0x5)
    4e4c:	50003800 	b           	56(0x38)	# 4e84 <_ZN4core3fmt5Write10write_char17h9480cdd9d96b62dfE+0xb4>
    4e50:	004498a6 	srli.w      	$a2, $a1, 0x6
    4e54:	03800807 	ori         	$a3, $zero, 0x2
    4e58:	001500a8 	move        	$a4, $a1
    4e5c:	0044b0a9 	srli.w      	$a5, $a1, 0xc
    4e60:	0044c8a5 	srli.w      	$a1, $a1, 0x12
    4e64:	007f18e8 	bstrins.w   	$a4, $a3, 0x1f, 0x6
    4e68:	007f18e6 	bstrins.w   	$a2, $a3, 0x1f, 0x6
    4e6c:	007f18e9 	bstrins.w   	$a5, $a3, 0x1f, 0x6
    4e70:	0383c0a5 	ori         	$a1, $a1, 0xf0
    4e74:	29001c68 	st.b        	$a4, $sp, 7(0x7)
    4e78:	29001866 	st.b        	$a2, $sp, 6(0x6)
    4e7c:	03801006 	ori         	$a2, $zero, 0x4
    4e80:	29001469 	st.b        	$a5, $sp, 5(0x5)
    4e84:	29001065 	st.b        	$a1, $sp, 4(0x4)
    4e88:	02c01065 	addi.d      	$a1, $sp, 4(0x4)
    4e8c:	57df5fff 	bl          	-8356(0xfffdf5c)	# 2de8 <_ZN68_$LT$core..fmt..builders..PadAdapter$u20$as$u20$core..fmt..Write$GT$9write_str17hd66f3aabe95da5f1E>
    4e90:	28c02061 	ld.d        	$ra, $sp, 8(0x8)
    4e94:	02c04063 	addi.d      	$sp, $sp, 16(0x10)
    4e98:	4c000020 	jirl        	$zero, $ra, 0
    4e9c:	00000000 	0x00000000

0000000000004ea0 <_ZN4core3fmt5Write9write_fmt17ha7161c2d94a6f38dE>:
    4ea0:	02ff0063 	addi.d      	$sp, $sp, -64(0xfc0)
    4ea4:	29c0e061 	st.d        	$ra, $sp, 56(0x38)
    4ea8:	29c00064 	st.d        	$a0, $sp, 0
    4eac:	28c000a4 	ld.d        	$a0, $a1, 0
    4eb0:	28c020a6 	ld.d        	$a2, $a1, 8(0x8)
    4eb4:	28c080a7 	ld.d        	$a3, $a1, 32(0x20)
    4eb8:	29c04066 	st.d        	$a2, $sp, 16(0x10)
    4ebc:	29c02064 	st.d        	$a0, $sp, 8(0x8)
    4ec0:	28c040a4 	ld.d        	$a0, $a1, 16(0x10)
    4ec4:	28c060a6 	ld.d        	$a2, $a1, 24(0x18)
    4ec8:	28c0a0a5 	ld.d        	$a1, $a1, 40(0x28)
    4ecc:	29c0a067 	st.d        	$a3, $sp, 40(0x28)
    4ed0:	29c08066 	st.d        	$a2, $sp, 32(0x20)
    4ed4:	29c06064 	st.d        	$a0, $sp, 24(0x18)
    4ed8:	29c0c065 	st.d        	$a1, $sp, 48(0x30)
    4edc:	02c00064 	addi.d      	$a0, $sp, 0
    4ee0:	1c000065 	pcaddu12i   	$a1, 3(0x3)
    4ee4:	02dac0a5 	addi.d      	$a1, $a1, 1712(0x6b0)
    4ee8:	02c02066 	addi.d      	$a2, $sp, 8(0x8)
    4eec:	57d047ff 	bl          	-12220(0xfffd044)	# 1f30 <_ZN4core3fmt5write17h62bbab114cb7dd1fE>
    4ef0:	28c0e061 	ld.d        	$ra, $sp, 56(0x38)
    4ef4:	02c10063 	addi.d      	$sp, $sp, 64(0x40)
    4ef8:	4c000020 	jirl        	$zero, $ra, 0
    4efc:	00000000 	0x00000000

0000000000004f00 <_ZN50_$LT$$RF$mut$u20$W$u20$as$u20$core..fmt..Write$GT$9write_str17hfa824e115599a72cE>:
    4f00:	28c00084 	ld.d        	$a0, $a0, 0
    4f04:	53dee7ff 	b           	-8476(0xfffdee4)	# 2de8 <_ZN68_$LT$core..fmt..builders..PadAdapter$u20$as$u20$core..fmt..Write$GT$9write_str17hd66f3aabe95da5f1E>

0000000000004f08 <_ZN50_$LT$$RF$mut$u20$W$u20$as$u20$core..fmt..Write$GT$10write_char17h0dbb446662c54b3cE>:
    4f08:	02ffc063 	addi.d      	$sp, $sp, -16(0xff0)
    4f0c:	29c02061 	st.d        	$ra, $sp, 8(0x8)
    4f10:	28c00084 	ld.d        	$a0, $a0, 0
    4f14:	03800006 	ori         	$a2, $zero, 0x0
    4f18:	004080a5 	slli.w      	$a1, $a1, 0x0
    4f1c:	29801066 	st.w        	$a2, $sp, 4(0x4)
    4f20:	03820006 	ori         	$a2, $zero, 0x80
    4f24:	6c0010a6 	bgeu        	$a1, $a2, 16(0x10)	# 4f34 <_ZN50_$LT$$RF$mut$u20$W$u20$as$u20$core..fmt..Write$GT$10write_char17h0dbb446662c54b3cE+0x2c>
    4f28:	29001065 	st.b        	$a1, $sp, 4(0x4)
    4f2c:	03800406 	ori         	$a2, $zero, 0x1
    4f30:	50009400 	b           	148(0x94)	# 4fc4 <_ZN50_$LT$$RF$mut$u20$W$u20$as$u20$core..fmt..Write$GT$10write_char17h0dbb446662c54b3cE+0xbc>
    4f34:	03a00006 	ori         	$a2, $zero, 0x800
    4f38:	6c0020a6 	bgeu        	$a1, $a2, 32(0x20)	# 4f58 <_ZN50_$LT$$RF$mut$u20$W$u20$as$u20$core..fmt..Write$GT$10write_char17h0dbb446662c54b3cE+0x50>
    4f3c:	03800806 	ori         	$a2, $zero, 0x2
    4f40:	004498a7 	srli.w      	$a3, $a1, 0x6
    4f44:	007f18c5 	bstrins.w   	$a1, $a2, 0x1f, 0x6
    4f48:	03800806 	ori         	$a2, $zero, 0x2
    4f4c:	29001465 	st.b        	$a1, $sp, 5(0x5)
    4f50:	038300e5 	ori         	$a1, $a3, 0xc0
    4f54:	50006c00 	b           	108(0x6c)	# 4fc0 <_ZN50_$LT$$RF$mut$u20$W$u20$as$u20$core..fmt..Write$GT$10write_char17h0dbb446662c54b3cE+0xb8>
    4f58:	14000206 	lu12i.w     	$a2, 16(0x10)
    4f5c:	6c0030a6 	bgeu        	$a1, $a2, 48(0x30)	# 4f8c <_ZN50_$LT$$RF$mut$u20$W$u20$as$u20$core..fmt..Write$GT$10write_char17h0dbb446662c54b3cE+0x84>
    4f60:	03800806 	ori         	$a2, $zero, 0x2
    4f64:	001500a7 	move        	$a3, $a1
    4f68:	004498a8 	srli.w      	$a4, $a1, 0x6
    4f6c:	0044b0a5 	srli.w      	$a1, $a1, 0xc
    4f70:	007f18c7 	bstrins.w   	$a3, $a2, 0x1f, 0x6
    4f74:	007f18c8 	bstrins.w   	$a4, $a2, 0x1f, 0x6
    4f78:	038380a5 	ori         	$a1, $a1, 0xe0
    4f7c:	03800c06 	ori         	$a2, $zero, 0x3
    4f80:	29001867 	st.b        	$a3, $sp, 6(0x6)
    4f84:	29001468 	st.b        	$a4, $sp, 5(0x5)
    4f88:	50003800 	b           	56(0x38)	# 4fc0 <_ZN50_$LT$$RF$mut$u20$W$u20$as$u20$core..fmt..Write$GT$10write_char17h0dbb446662c54b3cE+0xb8>
    4f8c:	004498a6 	srli.w      	$a2, $a1, 0x6
    4f90:	03800807 	ori         	$a3, $zero, 0x2
    4f94:	001500a8 	move        	$a4, $a1
    4f98:	0044b0a9 	srli.w      	$a5, $a1, 0xc
    4f9c:	0044c8a5 	srli.w      	$a1, $a1, 0x12
    4fa0:	007f18e8 	bstrins.w   	$a4, $a3, 0x1f, 0x6
    4fa4:	007f18e6 	bstrins.w   	$a2, $a3, 0x1f, 0x6
    4fa8:	007f18e9 	bstrins.w   	$a5, $a3, 0x1f, 0x6
    4fac:	0383c0a5 	ori         	$a1, $a1, 0xf0
    4fb0:	29001c68 	st.b        	$a4, $sp, 7(0x7)
    4fb4:	29001866 	st.b        	$a2, $sp, 6(0x6)
    4fb8:	03801006 	ori         	$a2, $zero, 0x4
    4fbc:	29001469 	st.b        	$a5, $sp, 5(0x5)
    4fc0:	29001065 	st.b        	$a1, $sp, 4(0x4)
    4fc4:	02c01065 	addi.d      	$a1, $sp, 4(0x4)
    4fc8:	57de23ff 	bl          	-8672(0xfffde20)	# 2de8 <_ZN68_$LT$core..fmt..builders..PadAdapter$u20$as$u20$core..fmt..Write$GT$9write_str17hd66f3aabe95da5f1E>
    4fcc:	28c02061 	ld.d        	$ra, $sp, 8(0x8)
    4fd0:	02c04063 	addi.d      	$sp, $sp, 16(0x10)
    4fd4:	4c000020 	jirl        	$zero, $ra, 0

0000000000004fd8 <_ZN50_$LT$$RF$mut$u20$W$u20$as$u20$core..fmt..Write$GT$9write_fmt17h909adf5ab1bbc9b6E>:
    4fd8:	02ff0063 	addi.d      	$sp, $sp, -64(0xfc0)
    4fdc:	29c0e061 	st.d        	$ra, $sp, 56(0x38)
    4fe0:	28c00084 	ld.d        	$a0, $a0, 0
    4fe4:	28c060a6 	ld.d        	$a2, $a1, 24(0x18)
    4fe8:	28c080a7 	ld.d        	$a3, $a1, 32(0x20)
    4fec:	28c0a0a8 	ld.d        	$a4, $a1, 40(0x28)
    4ff0:	28c000a9 	ld.d        	$a5, $a1, 0
    4ff4:	29c00064 	st.d        	$a0, $sp, 0
    4ff8:	28c040a4 	ld.d        	$a0, $a1, 16(0x10)
    4ffc:	28c020a5 	ld.d        	$a1, $a1, 8(0x8)
    5000:	29c08066 	st.d        	$a2, $sp, 32(0x20)
    5004:	29c02069 	st.d        	$a5, $sp, 8(0x8)
    5008:	29c0c068 	st.d        	$a4, $sp, 48(0x30)
    500c:	29c0a067 	st.d        	$a3, $sp, 40(0x28)
    5010:	02c02066 	addi.d      	$a2, $sp, 8(0x8)
    5014:	29c06064 	st.d        	$a0, $sp, 24(0x18)
    5018:	29c04065 	st.d        	$a1, $sp, 16(0x10)
    501c:	02c00064 	addi.d      	$a0, $sp, 0
    5020:	1c000065 	pcaddu12i   	$a1, 3(0x3)
    5024:	02d5c0a5 	addi.d      	$a1, $a1, 1392(0x570)
    5028:	57cf0bff 	bl          	-12536(0xfffcf08)	# 1f30 <_ZN4core3fmt5write17h62bbab114cb7dd1fE>
    502c:	28c0e061 	ld.d        	$ra, $sp, 56(0x38)
    5030:	02c10063 	addi.d      	$sp, $sp, 64(0x40)
    5034:	4c000020 	jirl        	$zero, $ra, 0

0000000000005038 <_ZN42_$LT$$RF$T$u20$as$u20$core..fmt..Debug$GT$3fmt17h2da3ba92630c11d1E>:
    5038:	02ffc063 	addi.d      	$sp, $sp, -16(0xff0)
    503c:	29c02061 	st.d        	$ra, $sp, 8(0x8)
    5040:	28c00084 	ld.d        	$a0, $a0, 0
    5044:	001500a6 	move        	$a2, $a1
    5048:	28c00085 	ld.d        	$a1, $a0, 0
    504c:	2880c0c4 	ld.w        	$a0, $a2, 48(0x30)
    5050:	03404087 	andi        	$a3, $a0, 0x10
    5054:	440028e0 	bnez        	$a3, 40(0x28)	# 507c <_ZN42_$LT$$RF$T$u20$as$u20$core..fmt..Debug$GT$3fmt17h2da3ba92630c11d1E+0x44>
    5058:	03408084 	andi        	$a0, $a0, 0x20
    505c:	44003880 	bnez        	$a0, 56(0x38)	# 5094 <_ZN42_$LT$$RF$T$u20$as$u20$core..fmt..Debug$GT$3fmt17h2da3ba92630c11d1E+0x5c>
    5060:	03800407 	ori         	$a3, $zero, 0x1
    5064:	001500a4 	move        	$a0, $a1
    5068:	001500e5 	move        	$a1, $a3
    506c:	57eb4fff 	bl          	-5300(0xfffeb4c)	# 3bb8 <_ZN4core3fmt3num3imp7fmt_u6417h1e59b8223145771dE.llvm.4803403633740665608>
    5070:	28c02061 	ld.d        	$ra, $sp, 8(0x8)
    5074:	02c04063 	addi.d      	$sp, $sp, 16(0x10)
    5078:	4c000020 	jirl        	$zero, $ra, 0
    507c:	1c000044 	pcaddu12i   	$a0, 2(0x2)
    5080:	02e9cc84 	addi.d      	$a0, $a0, -1421(0xa73)
    5084:	57fa87ff 	bl          	-1404(0xffffa84)	# 4b08 <_ZN4core3fmt3num12GenericRadix7fmt_int17hded4f09ad8add160E>
    5088:	28c02061 	ld.d        	$ra, $sp, 8(0x8)
    508c:	02c04063 	addi.d      	$sp, $sp, 16(0x10)
    5090:	4c000020 	jirl        	$zero, $ra, 0
    5094:	1c000044 	pcaddu12i   	$a0, 2(0x2)
    5098:	02e96c84 	addi.d      	$a0, $a0, -1445(0xa5b)
    509c:	57fb1fff 	bl          	-1252(0xffffb1c)	# 4bb8 <_ZN4core3fmt3num12GenericRadix7fmt_int17h7023761a67d263f0E>
    50a0:	28c02061 	ld.d        	$ra, $sp, 8(0x8)
    50a4:	02c04063 	addi.d      	$sp, $sp, 16(0x10)
    50a8:	4c000020 	jirl        	$zero, $ra, 0
    50ac:	00000000 	0x00000000

00000000000050b0 <rust_begin_unwind>:
    50b0:	02fd8063 	addi.d      	$sp, $sp, -160(0xf60)
    50b4:	29c26061 	st.d        	$ra, $sp, 152(0x98)
    50b8:	29c24077 	st.d        	$s0, $sp, 144(0x90)
    50bc:	00150097 	move        	$s0, $a0
    50c0:	5401d000 	bl          	464(0x1d0)	# 5290 <_ZN4core5panic10panic_info9PanicInfo7message17h81c008049ecbb73eE>
    50c4:	44002080 	bnez        	$a0, 32(0x20)	# 50e4 <rust_begin_unwind+0x34>
    50c8:	1c000044 	pcaddu12i   	$a0, 2(0x2)
    50cc:	02fcb084 	addi.d      	$a0, $a0, -212(0xf2c)
    50d0:	0380ac05 	ori         	$a1, $zero, 0x2b
    50d4:	1c000066 	pcaddu12i   	$a2, 3(0x3)
    50d8:	02d3b0c6 	addi.d      	$a2, $a2, 1260(0x4ec)
    50dc:	57cd07ff 	bl          	-13052(0xfffcd04)	# 1de0 <_ZN4core9panicking5panic17h2978341b5c47dc6dE>
    50e0:	002a0000 	break       	0x0
    50e4:	29c02064 	st.d        	$a0, $sp, 8(0x8)
    50e8:	001502e4 	move        	$a0, $s0
    50ec:	5401ac00 	bl          	428(0x1ac)	# 5298 <_ZN4core5panic10panic_info9PanicInfo8location17he81541ce8b957312E>
    50f0:	44008c80 	bnez        	$a0, 140(0x8c)	# 517c <rust_begin_unwind+0xcc>
    50f4:	1c000004 	pcaddu12i   	$a0, 0
    50f8:	02c59084 	addi.d      	$a0, $a0, 356(0x164)
    50fc:	03800405 	ori         	$a1, $zero, 0x1
    5100:	02c18066 	addi.d      	$a2, $sp, 96(0x60)
    5104:	29c06064 	st.d        	$a0, $sp, 24(0x18)
    5108:	02c02064 	addi.d      	$a0, $sp, 8(0x8)
    510c:	29c22065 	st.d        	$a1, $sp, 136(0x88)
    5110:	29c04064 	st.d        	$a0, $sp, 16(0x10)
    5114:	02c18064 	addi.d      	$a0, $sp, 96(0x60)
    5118:	29c10064 	st.d        	$a0, $sp, 64(0x40)
    511c:	02c04064 	addi.d      	$a0, $sp, 16(0x10)
    5120:	29c20064 	st.d        	$a0, $sp, 128(0x80)
    5124:	03800004 	ori         	$a0, $zero, 0x0
    5128:	29c1c064 	st.d        	$a0, $sp, 112(0x70)
    512c:	03800804 	ori         	$a0, $zero, 0x2
    5130:	29c1a064 	st.d        	$a0, $sp, 104(0x68)
    5134:	1c000064 	pcaddu12i   	$a0, 3(0x3)
    5138:	02d29084 	addi.d      	$a0, $a0, 1188(0x4a4)
    513c:	29c18064 	st.d        	$a0, $sp, 96(0x60)
    5140:	02c10064 	addi.d      	$a0, $sp, 64(0x40)
    5144:	1c000065 	pcaddu12i   	$a1, 3(0x3)
    5148:	02fd10a5 	addi.d      	$a1, $a1, -188(0xf44)
    514c:	57cde7ff 	bl          	-12828(0xfffcde4)	# 1f30 <_ZN4core3fmt5write17h62bbab114cb7dd1fE>
    5150:	4400d080 	bnez        	$a0, 208(0xd0)	# 5220 <rust_begin_unwind+0x170>
    5154:	54010c00 	bl          	268(0x10c)	# 5260 <_ZN8user_lib7process6getpid17h390fa79104e7d06dE>
    5158:	03810005 	ori         	$a1, $zero, 0x40
    515c:	54011c00 	bl          	284(0x11c)	# 5278 <_ZN8user_lib4sign4kill17he9a7f3170104a627E>
    5160:	1c000044 	pcaddu12i   	$a0, 2(0x2)
    5164:	02fba884 	addi.d      	$a0, $a0, -278(0xeea)
    5168:	0380a005 	ori         	$a1, $zero, 0x28
    516c:	1c000066 	pcaddu12i   	$a2, 3(0x3)
    5170:	02d330c6 	addi.d      	$a2, $a2, 1228(0x4cc)
    5174:	57cc6fff 	bl          	-13204(0xfffcc6c)	# 1de0 <_ZN4core9panicking5panic17h2978341b5c47dc6dE>
    5178:	002a0000 	break       	0x0
    517c:	00150097 	move        	$s0, $a0
    5180:	54012000 	bl          	288(0x120)	# 52a0 <_ZN4core5panic8location8Location4file17hc2363c9a5818d547E>
    5184:	29c12065 	st.d        	$a1, $sp, 72(0x48)
    5188:	29c10064 	st.d        	$a0, $sp, 64(0x40)
    518c:	001502e4 	move        	$a0, $s0
    5190:	54012000 	bl          	288(0x120)	# 52b0 <_ZN4core5panic8location8Location4line17h7c30dacfb24261a1E>
    5194:	02c16067 	addi.d      	$a3, $sp, 88(0x58)
    5198:	1c000008 	pcaddu12i   	$a4, 0
    519c:	02c30108 	addi.d      	$a4, $a4, 192(0xc0)
    51a0:	1c000065 	pcaddu12i   	$a1, 3(0x3)
    51a4:	02fba0a5 	addi.d      	$a1, $a1, -280(0xee8)
    51a8:	1c000069 	pcaddu12i   	$a5, 3(0x3)
    51ac:	02d14129 	addi.d      	$a5, $a5, 1104(0x450)
    51b0:	1c00000f 	pcaddu12i   	$t3, 0
    51b4:	02c261ef 	addi.d      	$t3, $t3, 152(0x98)
    51b8:	1c000071 	pcaddu12i   	$t5, 3(0x3)
    51bc:	28d70231 	ld.d        	$t5, $t5, 1472(0x5c0)
    51c0:	02c18066 	addi.d      	$a2, $sp, 96(0x60)
    51c4:	03800c0d 	ori         	$t1, $zero, 0x3
    51c8:	29815064 	st.w        	$a0, $sp, 84(0x54)
    51cc:	0380100a 	ori         	$a6, $zero, 0x4
    51d0:	0380000b 	ori         	$a7, $zero, 0x0
    51d4:	02c0406c 	addi.d      	$t0, $sp, 16(0x10)
    51d8:	02c1006e 	addi.d      	$t2, $sp, 64(0x40)
    51dc:	02c15070 	addi.d      	$t4, $sp, 84(0x54)
    51e0:	02c02072 	addi.d      	$t6, $sp, 8(0x8)
    51e4:	001500e4 	move        	$a0, $a3
    51e8:	29c0e068 	st.d        	$a4, $sp, 56(0x38)
    51ec:	29c0c072 	st.d        	$t6, $sp, 48(0x30)
    51f0:	29c0a071 	st.d        	$t5, $sp, 40(0x28)
    51f4:	29c08070 	st.d        	$t4, $sp, 32(0x20)
    51f8:	29c0606f 	st.d        	$t3, $sp, 24(0x18)
    51fc:	29c2206d 	st.d        	$t1, $sp, 136(0x88)
    5200:	29c2006c 	st.d        	$t0, $sp, 128(0x80)
    5204:	29c1c06b 	st.d        	$a7, $sp, 112(0x70)
    5208:	29c1a06a 	st.d        	$a6, $sp, 104(0x68)
    520c:	29c0406e 	st.d        	$t2, $sp, 16(0x10)
    5210:	29c16066 	st.d        	$a2, $sp, 88(0x58)
    5214:	29c18069 	st.d        	$a5, $sp, 96(0x60)
    5218:	57cd1bff 	bl          	-13032(0xfffcd18)	# 1f30 <_ZN4core3fmt5write17h62bbab114cb7dd1fE>
    521c:	43ff389f 	beqz        	$a0, -200(0x7fff38)	# 5154 <rust_begin_unwind+0xa4>
    5220:	1c000024 	pcaddu12i   	$a0, 1(0x1)
    5224:	02fa8884 	addi.d      	$a0, $a0, -350(0xea2)
    5228:	1c000067 	pcaddu12i   	$a3, 3(0x3)
    522c:	02fa40e7 	addi.d      	$a3, $a3, -368(0xe90)
    5230:	0380ac05 	ori         	$a1, $zero, 0x2b
    5234:	02c18066 	addi.d      	$a2, $sp, 96(0x60)
    5238:	1c000068 	pcaddu12i   	$a4, 3(0x3)
    523c:	02fa8108 	addi.d      	$a4, $a4, -352(0xea0)
    5240:	57eb83ff 	bl          	-5248(0xfffeb80)	# 3dc0 <_ZN4core6result13unwrap_failed17hc9198e820c2af379E>
    5244:	002a0000 	break       	0x0

0000000000005248 <_ZN44_$LT$$RF$T$u20$as$u20$core..fmt..Display$GT$3fmt17h0e0bd01c80663e44E>:
    5248:	001500a6 	move        	$a2, $a1
    524c:	28c02085 	ld.d        	$a1, $a0, 8(0x8)
    5250:	28c00084 	ld.d        	$a0, $a0, 0
    5254:	53d6ffff 	b           	-10500(0xfffd6fc)	# 2950 <_ZN42_$LT$str$u20$as$u20$core..fmt..Display$GT$3fmt17h27225c16acf76297E>

0000000000005258 <_ZN44_$LT$$RF$T$u20$as$u20$core..fmt..Display$GT$3fmt17hab1f4d50b3c5cce0E>:
    5258:	28c00084 	ld.d        	$a0, $a0, 0
    525c:	53cc77ff 	b           	-13196(0xfffcc74)	# 1ed0 <_ZN57_$LT$core..fmt..Arguments$u20$as$u20$core..fmt..Debug$GT$3fmt17hbd8c37d5f357b60eE>

0000000000005260 <_ZN8user_lib7process6getpid17h390fa79104e7d06dE>:
    5260:	03800005 	ori         	$a1, $zero, 0x0
    5264:	0382b004 	ori         	$a0, $zero, 0xac
    5268:	001500a6 	move        	$a2, $a1
    526c:	001500a7 	move        	$a3, $a1
    5270:	53c543ff 	b           	-15040(0xfffc540)	# 17b0 <do_syscall>
    5274:	00000000 	0x00000000

0000000000005278 <_ZN8user_lib4sign4kill17he9a7f3170104a627E>:
    5278:	00150088 	move        	$a4, $a0
    527c:	004080a6 	slli.w      	$a2, $a1, 0x0
    5280:	03820404 	ori         	$a0, $zero, 0x81
    5284:	03800007 	ori         	$a3, $zero, 0x0
    5288:	00150105 	move        	$a1, $a4
    528c:	53c527ff 	b           	-15068(0xfffc524)	# 17b0 <do_syscall>

0000000000005290 <_ZN4core5panic10panic_info9PanicInfo7message17h81c008049ecbb73eE>:
    5290:	28c04084 	ld.d        	$a0, $a0, 16(0x10)
    5294:	4c000020 	jirl        	$zero, $ra, 0

0000000000005298 <_ZN4core5panic10panic_info9PanicInfo8location17he81541ce8b957312E>:
    5298:	28c06084 	ld.d        	$a0, $a0, 24(0x18)
    529c:	4c000020 	jirl        	$zero, $ra, 0

00000000000052a0 <_ZN4core5panic8location8Location4file17hc2363c9a5818d547E>:
    52a0:	28c00086 	ld.d        	$a2, $a0, 0
    52a4:	28c02085 	ld.d        	$a1, $a0, 8(0x8)
    52a8:	001500c4 	move        	$a0, $a2
    52ac:	4c000020 	jirl        	$zero, $ra, 0

00000000000052b0 <_ZN4core5panic8location8Location4line17h7c30dacfb24261a1E>:
    52b0:	28804084 	ld.w        	$a0, $a0, 16(0x10)
    52b4:	4c000020 	jirl        	$zero, $ra, 0
